mads 2.1.0 build 8 (23 Dec 19)
Source: D:\!Delphi\PAS6502\test\tools\FoxDosInit\xdos.asm
     1 				// https://github.com/pfusik/numen/blob/master/dos.asx
     2
     3 = 0080			SECTOR_SIZE equ	128
     4 = 0169			DIR_SECTOR equ	$169
     5
     6 = 0024			icbalz	equ	$24
     7 = 002A			icax1z	equ	$2a
     8 = 02D5			dsctln	equ	$2d5
     9 = 02E0			runad	equ	$2e0
    10 = 02E2			initad	equ	$2e2
    11 = 02E7			memlo	equ	$2e7
    12 = 0302			dcomnd	equ	$302
    13 = 0304			dbuflo	equ	$304
    14 = 0305			dbufhi	equ	$305
    15 = 030A			daux1	equ	$30a
    16 = 030B			daux2	equ	$30b
    17 = 031A			hatabs	equ	$31a
    18 = E453			dskinv	equ	$e453
    19 = E486			pentv	equ	$e486
    20
    21 = 0043			file_id	equ	$43
    22 = 0044			load_ptr equ	$44
    23 = 0046			load_end equ	$46
    24 = 0700			buffer	equ	$700
    25
    26 					opt	h-f+
    27 					org	$800
    28 				buffer_ofs
    29 0800 46 03 00 08 77 E4		dta	c'F',3,a(buffer_ofs),a($e477)
    30
    31 0806			:SECTOR_SIZE!=128	mwy	#SECTOR_SIZE	dsctln
    32 0806 A0 72 8C E7 02 A0 + 	mwy	#dos_end	memlo
    33
    34 0810 A2 44			ldx	#'D'
    35 0812 A0 5B			ldy	<handler_table
    36 0814 A9 09			lda	>handler_table
    37 0816 20 86 E4			jsr	pentv
    38
    39 0819 20 9A 08			jsr	open_findFile
    40 081C 30 4F			bmi	load_error
    41
    42 081E			load_1
    43 081E 20 2F 09			jsr	read
    44 0821 30 47			bmi	load_run
    45 0823 85 44			sta	load_ptr
    46 0825 20 2F 09			jsr	read
    47 0828 30 43			bmi	load_error
    48 082A 85 45			sta	load_ptr+1
    49 				;	and	load_ptr
    50 082C C9 FF			cmp	#$ff
    51 082E B0 EE			bcs	load_1
    52 0830 20 2F 09			jsr	read
    53 0833 30 38			bmi	load_error
    54 0835 85 46			sta	load_end
    55 0837 20 2F 09			jsr	read
    56 083A 30 31			bmi	load_error
    57 083C 85 47			sta	load_end+1
    58 083E A9 4E 8D E2 02 A9 + 	mwa	#ret	initad
    59 0848			load_2
    60 0848 20 2F 09			jsr	read
    61 084B 30 20			bmi	load_error
    62 084D A0 00			ldy	#0
    63 084F 91 44			sta	(load_ptr),y
    64 0851 A4 44			ldy	load_ptr
    65 0853 A5 45			lda	load_ptr+1
    66 0855 E6 44 D0 02 E6 45		inw	load_ptr
    67 085B C4 46			cpy	load_end
    68 085D E5 47			sbc	load_end+1
    69 085F 90 E7			bcc	load_2
    70 0861 A9 08 48			lda:pha	>load_1-1
    71 0864 A9 1D 48			lda:pha	<load_1-1
    72 0867 6C E2 02			jmp	(initad)
    73 086A			load_run
    74 086A 6C E0 02			jmp	(runad)
    75 086D			load_error
    76 086D 38				sec
    77 086E 60				rts
    78
    79 086F			open
    80 086F A2 00 86 43			mvx	#0	file_id
    81 0873 A9 3A			lda	#':'
    82 0875 A0 01			ldy	#1
    83 0877 D1 24			cmp	(icbalz),y
    84 0879 F0 01 C8			seq:iny
    85
    86 087C			open_getName1
    87 087C C8				iny
    88 087D			open_getName2
    89 087D B1 24			lda	(icbalz),y
    90 087F C9 60			cmp	#'_'+1
    91 0881 B0 0C			bcs	open_getName3
    92 0883 C9 30			cmp	#'0'
    93 0885 B0 0B			bcs	open_getName4
    94 0887 C9 2E			cmp	#'.'
    95 0889 D0 04			bne	open_getName3
    96 088B E0 08			cpx	#8
    97 088D F0 ED			beq	open_getName1
    98 088F			open_getName3
    99 088F 88				dey
   100 0890 A9 20			lda	#' '
   101 0892			open_getName4
   102 0892 9D 67 09 E8			sta	file_name,x+
   103 0896 E0 0B			cpx	#11
   104 0898 90 E2			bcc	open_getName1
   105
   106 089A			open_findFile
   107 089A A0 69			ldy	#<DIR_SECTOR
   108 089C A9 01			lda	#>DIR_SECTOR
   109 089E A2 52			ldx	#'R'
   110 08A0 20 10 09			jsr	sio_sector
   111 08A3 30 3B			bmi	open_ret
   112 08A5			open_findFile1
   113 08A5 A2 0B			ldx	#11
   114 08A7			open_findFile2
   115 08A7 BD F5 06			lda	buffer-11,x
   116 08AA F0 4B			beq	open_notFound
   117 08AC 29 DF			and	#$df
   118 08AE C9 42			cmp	#$42
   119 08B0 D0 2F			bne	open_findFile4
   120 08B2 A0 0B			ldy	#11
   121 08B4			open_findFile3
   122 08B4 BD 04 07			lda	buffer+4,x
   123 08B7 D9 66 09			cmp	file_name-1,y
   124 08BA D0 25			bne	open_findFile4
   125 08BC CA				dex
   126 08BD 88				dey
   127 08BE D0 F4			bne	open_findFile3
   128 08C0 BD 03 07 8D 7E 07		mva	buffer+3,x	buffer+SECTOR_SIZE-2
   129 08C6 A5 43			lda	file_id
   130 08C8 0A 0A			asl:asl	@
   131 08CA 5D 04 07			eor	buffer+4,x
   132 08CD 8D 7D 07			sta	buffer+SECTOR_SIZE-3
   133 08D0 98				tya	;#0
   134 08D1 8D 7F 07			sta	buffer+SECTOR_SIZE-1
   135 08D4 8D 00 08			sta	buffer_ofs
   136 08D7 A0 7D			ldy	#SECTOR_SIZE-3
   137 08D9 99 FF 06 88 D0 FA		sta:rne	buffer-1,y-
   138 08DF C8				iny	;#1
   139 08E0			open_ret
   140 08E0 60				rts
   141 08E1			open_findFile4
   142 08E1 E6 43			inc	file_id
   143 08E3 8A				txa
   144 08E4 29 F0			and	#$f0
   145 08E6 18 69 1B			add	#$1b
   146 08E9 AA				tax
   147 08EA 10 BB			bpl	open_findFile2
   148 08EC EE 0A 03			inc	daux1
   149 08EF A2 52			ldx	#'R'
   150 08F1 20 21 09			jsr	sio_command
   151 08F4 10 AF			bpl	open_findFile1
   152 08F6 60				rts
   153 08F7			open_notFound
   154 08F7 A0 AA			ldy	#170
   155 08F9 60				rts
   156
   157 08FA			close
   158 08FA A5 2A			lda	icax1z
   159 08FC C9 08			cmp	#8
   160 08FE D0 4C			bne	success
   161 0900 A2 57			ldx	#'W'
   162 0902			sio_next
   163 0902 AD 7D 07			lda	buffer+SECTOR_SIZE-3
   164 0905 29 03			and	#$03
   165 0907 AC 7E 07			ldy	buffer+SECTOR_SIZE-2
   166 090A D0 04			bne	sio_sector
   167 090C C9 00			cmp	#0
   168 090E F0 1C			beq	eof
   169 0910			sio_sector
   170 0910 8C 0A 03			sty	daux1
   171 0913 8D 0B 03			sta	daux2
   172 0916 4D 7D 07 8D 7D 07		eor:sta	buffer+SECTOR_SIZE-3
   173 091C A9 00 8D 7E 07		mva	#0	buffer+SECTOR_SIZE-2
   174 0921			sio_command
   175 0921 8E 02 03			stx	dcomnd
   176 				;	mwa	#buffer	dbuflo
   177 0924 A9 07 8D 05 03		mva	>buffer	dbufhi
   178 0929 4C 53 E4			jmp	dskinv
   179 092C A0 88		eof	ldy	#136
   180 092E 60				rts
   181
   182 092F			read
   183 092F AC 00 08			ldy	buffer_ofs
   184 0932 CC 7F 07			cpy	buffer+SECTOR_SIZE-1
   185 0935 90 0E			bcc	read_get
   186 0937 A2 52			ldx	#'R'
   187 0939 20 02 09			jsr	sio_next
   188 093C 30 10			bmi	read_ret
   189 093E AC 7F 07			ldy	buffer+SECTOR_SIZE-1
   190 0941 F0 E9			beq	eof
   191 0943 A0 00			ldy	#0
   192 0945			read_get
   193 0945 B9 00 07 C8			lda	buffer,y+
   194 0949 8C 00 08			sty	buffer_ofs
   195 094C			success
   196 094C A0 01			ldy	#1
   197 094E			read_ret
   198 094E			ret
   199 094E 60				rts
   200
   201 094F			write
   202 094F AC 7F 07 EE 7F 07		ldy:inc	buffer+SECTOR_SIZE-1
   203 0955 99 00 07			sta	buffer,y
   204 0958 A0 01			ldy	#1
   205 095A 60				rts
   206
   207 095B			handler_table
   208 095B 6E 08 F9 08 2E 09 + 	dta	a(open-1,close-1,read-1,write-1,ret-1,ret-1)
   209
   210 0967			file_name
   211 0967 41 55 54 4F 52 55 + 	dta	c'AUTORUN    '
   212
   213 0972			dos_end
   214
   215 0972				org buffer_ofs+$17f
   216 097F 00				.byte 0			;Ensure $180 bytes size
   217
   218 				.print *
   218 				$0980
   219
   220 					end
