mads 2.1.5 build 2 (29 Jan 22)
Source: heatmap.a65
     1 				; ------------------------------------------------------------
     2 				; Mad Pascal Compiler version 1.6.6 [2022/01/30] for 6502
     3 				; ------------------------------------------------------------
     4
     5 = 0010			STACKWIDTH	= 16
     6 = 2000			CODEORIGIN	= $2000
     7
     8 = 0001			TRUE		= 1
     9 = 0000			FALSE		= 0
    10
    11 				; ------------------------------------------------------------
    12
    13 					org $80
    14
    15 				zpage
    16
    17 				.ifdef @vbxe_detect
    18 				fxptr	.ds 2						; VBXE pointer
    19 				.fi
    20
    21 				.if .def(@AllocMem)||.def(MAIN.SYSTEM.GETMEM)||.def(MAIN.SYSTEM.FREEMEM)
    22 				psptr	.ds 2						; PROGRAMSTACK Pointer
    23 				.fi
    24
    25 = 0080			bp	.ds 2
    26 = 0082			bp2	.ds 2
    27
    28 = 0084			eax	.ds 4						;8 bytes (aex + edx) -> divREAL
    29 = 0088			edx	.ds 4
    30 = 008C			ecx	.ds 4
    31
    32 				TMP
    33 				ztmp
    34 = 0090			ztmp8	.ds 1
    35 = 0091			ztmp9	.ds 1
    36 = 0092			ztmp10	.ds 1
    37 = 0093			ztmp11	.ds 1
    38
    39 = 0094			STACKORIGIN	.ds STACKWIDTH*4
    40 				zpend
    41
    42 				; ------------------------------------------------------------
    43
    44 = 0084			ax	= eax
    45 = 0084			al	= eax
    46 = 0085			ah	= eax+1
    47
    48 = 008C			cx	= ecx
    49 = 008C			cl	= ecx
    50 = 008D			ch	= ecx+1
    51
    52 = 0088			dx	= edx
    53 = 0088			dl	= edx
    54 = 0089			dh	= edx+1
    55
    56 					org eax
    57
    58 = 0084			FP1MAN0	.ds 1
    59 = 0085			FP1MAN1	.ds 1
    60 = 0086			FP1MAN2	.ds 1
    61 = 0087			FP1MAN3	.ds 1
    62
    63 					org ztmp8
    64
    65 = 0090			FP1SGN	.ds 1
    66 = 0091			FP1EXP	.ds 1
    67
    68 					org edx
    69
    70 = 0088			FP2MAN0	.ds 1
    71 = 0089			FP2MAN1	.ds 1
    72 = 008A			FP2MAN2	.ds 1
    73 = 008B			FP2MAN3	.ds 1
    74
    75 					org ztmp10
    76
    77 = 0092			FP2SGN	.ds 1
    78 = 0093			FP2EXP	.ds 1
    79
    80 					org ecx
    81
    82 = 008C			FPMAN0	.ds 1
    83 = 008D			FPMAN1	.ds 1
    84 = 008E			FPMAN2	.ds 1
    85 = 008F			FPMAN3	.ds 1
    86
    87 					org bp2
    88
    89 = 0082			FPSGN	.ds 1
    90 = 0083			FPEXP	.ds 1
    91
    92 					.ifdef MAIN.@DEFINES.BASICOFF
    93 					org CODEORIGIN
    94 					icl 'atari\basicoff.asm'
    95 					ini CODEORIGIN
    96 					.fi
    97
    98 					.ifdef MAIN.@DEFINES.S_VBXE
    99 					opt h-
   100 					ins 'atari\s_vbxe\sdxld2.obx'
   101 					opt h+
   102 					.fi
   103
   104 				; ------------------------------------------------------------
   105
   106 					org CODEORIGIN
   107
   108 2000				STATICDATA
Macro: STATICDATA [Source: heatmap.a65]
     1 FFFF> 2000-3D46> 00 00 + .by  $00 $00 $04 $54 $52 $55 $45 $00  $05 $46 $41 $4C $53 $45 $00 $24  $45 $6E $74 $65 $72 $20 $66 $69
     2 2018 6C 65 6E 61 6D 65 + .by  $6C $65 $6E $61 $6D $65 $20 $28  $65 $67 $2E $20 $44 $3A $46 $49  $4C $45 $4E $41 $4D $45 $2E $44
     3 2030 49 46 29 2E 00 23 + .by  $49 $46 $29 $2E $00 $23 $45 $6E  $74 $65 $72 $20 $2A $20 $66 $6F  $72 $20 $6C $69 $73 $74 $20 $6F
     4 2048 66 20 73 75 70 70 + .by  $66 $20 $73 $75 $70 $70 $6F $72  $74 $65 $64 $20 $66 $69 $6C $65  $73 $00 $15 $69 $6E $20 $63 $75
     5 2060 72 72 65 6E 74 20 + .by  $72 $72 $65 $6E $74 $20 $64 $69  $72 $65 $63 $74 $6F $72 $79 $2E  $00 $1A $50 $72 $65 $73 $73 $20
     6 2078 C2 D2 C5 C1 CB 20 + .by  $C2 $D2 $C5 $C1 $CB $20 $74 $6F  $20 $65 $78 $69 $74 $20 $74 $6F  $20 $44 $4F $53 $00 $18 $42 $72
     7 2090 65 61 6B 20 70 72 + .by  $65 $61 $6B $20 $70 $72 $65 $73  $73 $65 $64 $2E $20 $41 $62 $6F  $72 $74 $69 $6E $67 $2E $00 $12
     8 20A8 52 65 61 64 69 6E + .by  $52 $65 $61 $64 $69 $6E $67 $20  $64 $69 $72 $65 $63 $74 $6F $72  $79 $2E $00 $07 $44 $3A $2A $2E
     9 20C0 44 49 46 00 02 44 + .by  $44 $49 $46 $00 $02 $44 $3A $00  $22 $54 $6F $6F $20 $6D $61 $6E  $79 $20 $6F $70 $65 $6E $20 $64
    10 20D8 69 73 6B 20 66 69 + .by  $69 $73 $6B $20 $66 $69 $6C $65  $73 $2E $20 $41 $62 $6F $72 $74  $69 $6E $67 $00 $0F $46 $69 $6C
    11 20F0 65 20 6E 6F 74 20 + .by  $65 $20 $6E $6F $74 $20 $66 $6F  $75 $6E $64 $2E $00 $05 $54 $41  $42 $4C $45 $00 $20 $54 $68 $69
    12 2108 73 20 69 73 20 6E + .by  $73 $20 $69 $73 $20 $6E $6F $74  $20 $61 $20 $44 $49 $46 $20 $66  $69 $6C $65 $2E $20 $41 $62 $6F
    13 2120 72 74 69 6E 67 00 + .by  $72 $74 $69 $6E $67 $00 $0D $50  $61 $72 $73 $69 $6E $67 $20 $66  $69 $6C $65 $2E $00 $1D $4C $6F
    14 2138 6F 6B 69 6E 67 20 + .by  $6F $6B $69 $6E $67 $20 $66 $6F  $72 $20 $74 $61 $62 $6C $65 $20  $64 $65 $66 $69 $6E $69 $74 $69
    15 2150 6F 6E 2E 00 07 56 + .by  $6F $6E $2E $00 $07 $56 $45 $43  $54 $4F $52 $53 $00 $1F $43 $6F  $6C $75 $6D $6E $73 $20 $69 $6E
    16 2168 66 6F 20 6D 69 73 + .by  $66 $6F $20 $6D $69 $73 $73 $69  $6E $67 $2E $20 $41 $62 $6F $72  $74 $69 $6E $67 $2E $00 $10 $4E
    17 2180 75 6D 62 65 72 20 + .by  $75 $6D $62 $65 $72 $20 $6F $66  $20 $72 $6F $77 $73 $3A $20 $00  $21 $4D $61 $78 $20 $6E $75 $6D
    18 2198 62 65 72 20 6F 66 + .by  $62 $65 $72 $20 $6F $66 $20 $72  $6F $77 $73 $3A $20 $34 $30 $2E  $20 $41 $62 $6F $72 $74 $69 $6E
    19 21B0 67 2E 00 06 54 55 + .by  $67 $2E $00 $06 $54 $55 $50 $4C  $45 $53 $00 $1C $52 $6F $77 $73  $20 $69 $6E $66 $6F $20 $6D $69
    20 21C8 73 73 69 6E 67 2E + .by  $73 $73 $69 $6E $67 $2E $20 $41  $62 $6F $72 $74 $69 $6E $67 $2E  $00 $13 $4E $75 $6D $62 $65 $72
    21 21E0 20 6F 66 20 63 6F + .by  $20 $6F $66 $20 $63 $6F $6C $75  $6D $6E $73 $3A $20 $00 $04 $44  $41 $54 $41 $00 $1C $44 $61 $74
    22 21F8 61 20 69 6E 66 6F + .by  $61 $20 $69 $6E $66 $6F $20 $6D  $69 $73 $73 $69 $6E $67 $2E $20  $41 $62 $6F $72 $74 $69 $6E $67
    23 2210 2E 00 1C 44 61 74 + .by  $2E $00 $1C $44 $61 $74 $61 $20  $66 $6F $75 $6E $64 $2E $20 $50  $61 $72 $73 $69 $6E $67 $20 $72
    24 2228 65 63 6F 72 64 73 + .by  $65 $63 $6F $72 $64 $73 $2E $00  $08 $1C $52 $65 $63 $6F $72 $64  $20 $00 $04 $20 $6F $66 $20 $00
    25 2240 17 44 61 74 61 20 + .by  $17 $44 $61 $74 $61 $20 $70 $61  $72 $73 $65 $64 $20 $61 $6E $64  $20 $6C $6F $61 $64 $65 $64 $2E
    26 2258 00 21 4E 75 6D 62 + .by  $00 $21 $4E $75 $6D $62 $65 $72  $20 $6F $66 $20 $73 $74 $72 $69  $6E $67 $20 $66 $69 $65 $6C $64
    27 2270 73 20 73 6B 69 70 + .by  $73 $20 $73 $6B $69 $70 $70 $65  $64 $3A $20 $00 $20 $4C $6F $6F  $6B $69 $6E $67 $20 $66 $6F $72
    28 2288 20 6D 69 6E 69 6D + .by  $20 $6D $69 $6E $69 $6D $75 $6D  $20 $61 $6E $64 $20 $6D $61 $78  $69 $6D $75 $6D $2E $00 $05 $4D
    29 22A0 61 78 3A 20 00 06 + .by  $61 $78 $3A $20 $00 $06 $20 $4D  $69 $6E $3A $20 $00 $18 $44 $61  $74 $61 $20 $6E $65 $65 $64 $20
    30 22B8 6E 6F 72 6D 61 6C + .by  $6E $6F $72 $6D $61 $6C $69 $73  $61 $74 $69 $6F $6E $2E $00 $21  $41 $74 $74 $65 $6D $70 $74 $69
    31 22D0 6E 67 20 74 6F 20 + .by  $6E $67 $20 $74 $6F $20 $6E $6F  $72 $6D $61 $6C $69 $73 $65 $20  $74 $68 $65 $20 $64 $61 $74 $61
    32 22E8 2E 00 0C 50 6C 65 + .by  $2E $00 $0C $50 $6C $65 $61 $73  $65 $20 $77 $61 $69 $74 $2E $00  $17 $4E $6F $72 $6D $61 $6C $69
    33 2300 73 61 74 69 6F 6E + .by  $73 $61 $74 $69 $6F $6E $20 $63  $6F $6D $70 $6C $65 $74 $65 $2E  $00 $24 $50 $72 $65 $73 $73 $20
    34 2318 61 6E 79 20 6B 65 + .by  $61 $6E $79 $20 $6B $65 $79 $20  $74 $6F $20 $64 $69 $73 $70 $6C  $61 $79 $20 $61 $73 $20 $68 $65
    35 2330 61 74 6D 61 70 2E + .by  $61 $74 $6D $61 $70 $2E $00 $21  $48 $65 $61 $74 $6D $61 $70 $20  $30 $2E $35 $20 $62 $79 $20 $64
    36 2348 65 6C 79 2F 42 6C + .by  $65 $6C $79 $2F $42 $6C $6F $77  $6A $6F $62 $62 $20 $32 $30 $32  $31 $00 $17 $68 $74 $74 $70 $3A
    37 2360 2F 2F 77 77 77 2E + .by  $2F $2F $77 $77 $77 $2E $61 $74  $61 $72 $69 $2E $6F $72 $67 $2E  $70 $6C $00 $03 $02 $02 $01 $01
    38 2378 02 02 03 03 03 03 + .by  $02 $02 $03 $03 $03 $03 $03 $03  $03 $02 $03 $28 $14 $14 $28 $50  $50 $A0 $A0 $40 $50 $50 $50 $28
    39 2390 28 A0 A0 18 18 0C + .by  $28 $A0 $A0 $18 $18 $0C $18 $30  $30 $60 $60 $C0 $C0 $C0 $C0 $18  $0C $C0 $C0
Source: heatmap.a65
   109
   110 				; ------------------------------------------------------------
   111
   112 23A3			RTLIB
   113 23A3				icl 'rtl6502_a8.asm'
Source: rtl6502_a8.asm
    78 					opt l+
   114
   115 				.print 'ZPAGE: ',zpage,'..',zpend-1
   115 				ZPAGE: $0080..$00D3
   116
   117 				.print 'RTLIB: ',RTLIB,'..',*-1
   117 				RTLIB: $23A3..$2A0E
   118
   119 				; ------------------------------------------------------------
   120
   121 2A0F			START
   122 2A0F BA				tsx
   123 2A10 8E 20 3D			stx MAIN.@halt+1
   124
   125 					.ifdef fmulinit
   126 					fmulinit
   127 					.fi
   128
   129 = 0077			VLEN	= VARDATASIZE-VARINITSIZE
   130 = 6266			VADR	= DATAORIGIN+VARINITSIZE
   131
   132 					ift VADR > $BFFF
   133 					ert 'Invalid memory address range ',VADR
   134 					eli (VLEN>0) && (VLEN<=256)
   135 2A13 A2 89			ldx #256-VLEN
   136 2A15 A9 00			lda #$00
   137 2A17 9D DD 61 E8 D0 FA		sta:rne VADR+VLEN-256,x+
   138 					eli VLEN>256
   139 					@fill #VADR #VLEN #$00
   140 					eif
   141
   142 				.ifdef :psptr
   143 					mwa #PROGRAMSTACK :psptr
   144 				.fi
   145
   146 					.ifdef MAIN.@DEFINES.ROMOFF
   147 					icl 'atari\romoff.asm'
   148 					.fi
   149
   150 2A1D A2 0F			ldx #$0F					; DOS II+/D ParamStr
   151 2A1F BD 40 03 9D 25 3D + 	mva:rpl $340,x MAIN.IOCB@COPY,x-
   152
   153 2A28 E8				inx						; X = 0
   154 2A29 86 80			stx bp						; BP = 0
   155
   156 2A2B 8E 0F D2			stx skctl					; reset POKEY
   157 2A2E A9 03			lda #3
   158 2A30 8D 0F D2			sta skctl
   159
   160 2A33 CA				dex						; X = 255
   161
   162 2A34				UNITINITIALIZATION
Macro: UNITINITIALIZATION [Source: heatmap.a65]
   163
   164 2A34			.local	MAIN						; PROCEDURE
   165
   166 2A34 4C EF 3C			jmp l_037A
   167
   168 				; ------------------------------------------------------------
   169
   170 2A37			.local	SYSTEM						; UNIT
   171
   172 2A37			.local	PEEK						; FUNCTION | ASSEMBLER | REGISTER
   173
   174 				; ------------------------------------------------------------
   175
   176 				; Generate Assignment for WORD / SMALLINT / SHORTREAL / POINTER
   177 				; as Pointer
   178 2A37 B5 94			lda :STACKORIGIN,x
   179 2A39 85 88			sta A
   180 2A3B B5 A4			lda :STACKORIGIN+STACKWIDTH,x
   181 2A3D 85 89			sta A+1
   182 2A3F CA				dex
   183 2A40			@main
   184
   185 				; ---------------------  ASM Block 002  ---------------------
   186
   187 2A40 A0 00			ldy #0
   188 2A42 B1 88 8D 53 3D		mva (:edx),y Result
   189
   190 2A47			@exit
   191
   192 				; ------------------------------------------------------------
   193
   194 				; Push BYTE / CHAR / SHORTINT / BOOLEAN
   195 				; as Pointer
   196
   197 2A47 E8				inx
   198 2A48 AD 53 3D 95 94		mva RESULT :STACKORIGIN,x
   199
   200 					.ifdef @new
   201 					lda <@VarData
   202 					sta :ztmp
   203 					lda >@VarData
   204 					ldy #@VarDataSize-1
   205 					jmp @FreeMem
   206 					eif
   207
   208 				; ------------------------------------------------------------
   209
   210 = 0088			A	= :EDX
   211 = 3D53			RESULT	= DATAORIGIN+$000B
   212
   213 = 3D53			@VarData	= RESULT
   214 = 0001			@VarDataSize	= 1
   215
   216 2A4D 60				rts						; ret
   217 				.endl
   218
   219 2A4E			.local	VAL_03A7					; PROCEDURE | ASSEMBLER | OVERLOAD
   220
   221 				; ---------------------  ASM Block 014  ---------------------
   222
   223 					@StrToInt s
   223 				 LDY S+1\ LDA S\ JSR @STRTOINT
   223 2A4E AC 55 3D		 LDY S+1
   223 2A51 AD 54 3D		 LDA S
   223 2A54 20 80 28		 JSR @STRTOINT
   224
   225 2A57 98				tya
   226 2A58 48				pha
   227
   228 2A59 AD 58 3D 85 82 AD + 	mwa code :bp2
   229 2A63 A0 00			ldy #0
   230
   231 2A65 68				pla
   232 2A66 91 82			sta (:bp2),y
   233
   234 2A68 AD 56 3D 85 82 AD + 	mwa v :bp2
   235
   236 2A72 A5 88 91 82 C8		mva :edx (:bp2),y+
   237 2A77 A5 89 91 82 C8		mva :edx+1 (:bp2),y+
   238 2A7C A5 8A 91 82 C8		mva :edx+2 (:bp2),y+
   239 2A81 A5 8B 91 82			mva :edx+3 (:bp2),y
   240
   241
   242 				; ------------------------------------------------------------
   243
   244 = 3D54			S	= DATAORIGIN+$000C
   245 = 3D56			V	= DATAORIGIN+$000E
   246 = 3D58			CODE	= DATAORIGIN+$0010
   247
   248 = 3D54			@VarData	= S
   249 = 0006			@VarDataSize	= 6
   250
   251 2A85			@exit
   252 					.ifdef @new
   253 					lda <@VarData
   254 					sta :ztmp
   255 					lda >@VarData
   256 					ldy #@VarDataSize-1
   257 					jmp @FreeMem
   258 					els
   259 2A85 60				rts						; ret
   260 					eif
   261 				.endl
   262
   263 2A86			.local	SETLENGTH					; PROCEDURE | ASSEMBLER | REGISTER
   264
   265 				; ---------------------  ASM Block 033  ---------------------
   266
   267 2A86 A0 00			ldy #0
   268 2A88 A5 8C 91 88			mva Len (:edx),y
   269
   270
   271 				; ------------------------------------------------------------
   272
   273 = 0088			S	= :EDX
   274 = 008C			LEN	= :ECX
   275 2A8C			@exit
   276 					.ifdef @new
   277 					lda <@VarData
   278 					sta :ztmp
   279 					lda >@VarData
   280 					ldy #@VarDataSize-1
   281 					jmp @FreeMem
   282 					els
   283 2A8C 60				rts						; ret
   284 					eif
   285 				.endl
   286
   287 2A8D			.local	PAUSE_03DD					; PROCEDURE | ASSEMBLER | OVERLOAD
   288
   289 				; ---------------------  ASM Block 037  ---------------------
   290
   291
   292 2A8D AD 5A 3D		loop	lda n
   293 2A90 0D 5B 3D			ora n+1
   294 2A93 F0 14			beq stop
   295
   296 2A95 A5 14 C5 14 F0 FC		lda:cmp:req :rtclok+2
   297
   298 2A9B AD 5A 3D D0 03 CE + 	dew n
   299
   300 2AA6 4C 8D 2A			jmp loop
   301 2AA9			stop
   302
   303
   304
   305 				; ------------------------------------------------------------
   306
   307 = 3D5A			N	= DATAORIGIN+$0012
   308
   309 = 3D5A			@VarData	= N
   310 = 0002			@VarDataSize	= 2
   311
   312 2AA9			@exit
   313 					.ifdef @new
   314 					lda <@VarData
   315 					sta :ztmp
   316 					lda >@VarData
   317 					ldy #@VarDataSize-1
   318 					jmp @FreeMem
   319 					els
   320 2AA9 60				rts						; ret
   321 					eif
   322 				.endl
   323
   324 2AAA			.local	CONCAT_03DF					; FUNCTION | ASSEMBLER | OVERLOAD
   325
   326 				; ---------------------  ASM Block 047  ---------------------
   327
   328 2AAA AD 5D 3D C9 04 D0 + 	cpw a #@buf
   329 2AB6 F0 0E			beq skp
   330
   331 2AB8 A9 00 8D 00 04		mva #0 @buf
   332 					@addString a
   332 				 LDY A+1\ LDA A\ JSR @ADDSTRING
   332 2ABD AC 5D 3D		 LDY A+1
   332 2AC0 AD 5C 3D		 LDA A
   332 2AC3 20 04 26		 JSR @ADDSTRING
   333 2AC6			skp
   334 2AC6 EE 00 04			inc @buf
   335 2AC9 AC 00 04			ldy @buf
   336 2ACC AD 5E 3D			lda b
   337 2ACF 99 00 04			sta @buf,y
   338
   339 2AD2 A0 00			ldy #0
   340 2AD4 B9 00 04 99 5F 3D + 	mva:rne @buf,y adr.Result,y+
   341
   342 2ADD			@exit
   343
   344 				; ------------------------------------------------------------
   345
   346 = 3D5C			A	= DATAORIGIN+$0014
   347 = 3D5E			B	= DATAORIGIN+$0016
   348 = 3D5F			adr.RESULT	= [DATAORIGIN+$0017] .array [256]
   349 2ADD			.var RESULT	= adr.RESULT .word
   350
   351 = 3D5C			@VarData	= A
   352 = 0103			@VarDataSize	= 259
   353
   354 2ADD 60				rts						; ret
   355 = 2ADE 5F 3D		RESULT
   355 				.endl
   356
   357 				; ------------------------------------------------------------
   358
   359 = 0101			__PORTB_BANKS	= $0101
   360 = 0648			M_PI_2	= $0648
   361 = 0192			D_PI_2	= $0192
   362 = 0004			D_PI_180	= $04
   363 = 0000			MGTIA	= $00
   364 = 0080			MVBXE	= $80
   365 = 0000			VBXE_XDLADR	= $00
   366 = 0100			VBXE_BCBADR	= $0100
   367 = 1000			VBXE_MAPADR	= $1000
   368 = 1000			VBXE_CHBASE	= $1000
   369 = 5000			VBXE_OVRADR	= $5000
   370 = B000			VBXE_WINDOW	= $B000
   371 = 0000			IDLI	= $00
   372 = 0001			IVBL	= $01
   373 = 0002			ITIM1	= $02
   374 = 0003			ITIM2	= $03
   375 = 0004			ITIM4	= $04
   376 = 00FE			CH_DELCHR	= $FE
   377 = 009B			CH_ENTER	= $9B
   378 = 001B			CH_ESC	= $1B
   379 = 001C			CH_CURS_UP	= $1C
   380 = 001D			CH_CURS_DOWN	= $1D
   381 = 001E			CH_CURS_LEFT	= $1E
   382 = 001F			CH_CURS_RIGHT	= $1F
   383 = 007F			CH_TAB	= $7F
   384 = 009B			CH_EOL	= $9B
   385 = 007D			CH_CLR	= $7D
   386 = 00FD			CH_BELL	= $FD
   387 = 007E			CH_DEL	= $7E
   388 = 009C			CH_DELLINE	= $9C
   389 = 009D			CH_INSLINE	= $9D
   390 = 0000			COLOR_BLACK	= $00
   391 = 000E			COLOR_WHITE	= $0E
   392 = 0032			COLOR_RED	= $32
   393 = 0096			COLOR_CYAN	= $96
   394 = 0068			COLOR_VIOLET	= $68
   395 = 00C4			COLOR_GREEN	= $C4
   396 = 0074			COLOR_BLUE	= $74
   397 = 00EE			COLOR_YELLOW	= $EE
   398 = 0028			COLOR_ORANGE	= $28
   399 = 00E4			COLOR_BROWN	= $E4
   400 = 003C			COLOR_LIGHTRED	= $3C
   401 = 0004			COLOR_GRAY1	= $04
   402 = 0006			COLOR_GRAY2	= $06
   403 = 000A			COLOR_GRAY3	= $0A
   404 = 00CC			COLOR_LIGHTGREEN	= $CC
   405 = 007C			COLOR_LIGHTBLUE	= $7C
   406 = 0004			FMOPENREAD	= $04
   407 = 0008			FMOPENWRITE	= $08
   408 = 0009			FMOPENAPPEND	= $09
   409 = 000C			FMOPENREADWRITE	= $0C
   410 = 3D48			SCREENWIDTH	= DATAORIGIN+$0000
   411 = 3D4A			SCREENHEIGHT	= DATAORIGIN+$0002
   412 = 3D4C			DATESEPARATOR	= DATAORIGIN+$0004
   413 = D20A			RND	= $D20A
   414 = 02C0			adr.PALETTE	= $02C0
   415 2AE0			.var PALETTE	= adr.PALETTE .word
   416 = D012			adr.HPALETTE	= $D012
   417 2AE0			.var HPALETTE	= adr.HPALETTE .word
   418 = 3D4D			FILEMODE	= DATAORIGIN+$0005
   419 = 3D4E			GRAPHMODE	= DATAORIGIN+$0006
   420 = 3D4F			IORESULT	= DATAORIGIN+$0007
   421 = 3D50			EOLN	= DATAORIGIN+$0008
   422 = 3D51			RNDSEED	= DATAORIGIN+$0009
   423
   424 = 2AE0 C0 02		PALETTE
   424 = 2AE2 12 D0		HPALETTE
   424 				.endl							; UNIT SYSTEM
   425
   426 				; ------------------------------------------------------------
   427
   428 2AE4			.local	ATARI						; UNIT
   429
   430 				; ------------------------------------------------------------
   431
   432 = 0010			IRQENS	= $10
   433 = 0012			RTCLOK	= $12
   434 = 0012			RTCLOK1	= $12
   435 = 0013			RTCLOK2	= $13
   436 = 0014			RTCLOK3	= $14
   437 = 004D			ATRACT	= $4D
   438 = 0052			LMARGIN	= $52
   439 = 0053			RMARGIN	= $53
   440 = 0054			ROWCRS	= $54
   441 = 0055			COLCRS	= $55
   442 = 0057			DINDEX	= $57
   443 = 0058			SAVMSC	= $58
   444 = 0062			PALNTS	= $62
   445 = 006A			RAMTOP	= $6A
   446 = 0200			VDSLST	= $0200
   447 = 0230			SDLSTL	= $0230
   448 = 0290			TXTROW	= $0290
   449 = 0291			TXTCOL	= $0291
   450 = 0293			TINDEX	= $0293
   451 = 0294			TXTMSC	= $0294
   452 = 022F			SDMCTL	= $022F
   453 = 026F			GPRIOR	= $026F
   454 = 02F0			CRSINH	= $02F0
   455 = 02F3			CHACT	= $02F3
   456 = 02F4			CHBAS	= $02F4
   457 = 02FC			CH	= $02FC
   458 = 02C0			PCOLR0	= $02C0
   459 = 02C1			PCOLR1	= $02C1
   460 = 02C2			PCOLR2	= $02C2
   461 = 02C3			PCOLR3	= $02C3
   462 = 02C4			COLOR0	= $02C4
   463 = 02C5			COLOR1	= $02C5
   464 = 02C6			COLOR2	= $02C6
   465 = 02C7			COLOR3	= $02C7
   466 = 02C8			COLOR4	= $02C8
   467 = 02C8			COLBAKS	= $02C8
   468 = D000			HPOSP0	= $D000
   469 = D001			HPOSP1	= $D001
   470 = D002			HPOSP2	= $D002
   471 = D003			HPOSP3	= $D003
   472 = D004			HPOSM0	= $D004
   473 = D005			HPOSM1	= $D005
   474 = D006			HPOSM2	= $D006
   475 = D007			HPOSM3	= $D007
   476 = D008			SIZEP0	= $D008
   477 = D009			SIZEP1	= $D009
   478 = D00A			SIZEP2	= $D00A
   479 = D00B			SIZEP3	= $D00B
   480 = D00C			SIZEM	= $D00C
   481 = D00D			GRAFP0	= $D00D
   482 = D00E			GRAFP1	= $D00E
   483 = D00F			GRAFP2	= $D00F
   484 = D010			GRAFP3	= $D010
   485 = D011			GRAFM	= $D011
   486 = D004			P0PF	= $D004
   487 = D014			PAL	= $D014
   488 = D012			COLPM0	= $D012
   489 = D013			COLPM1	= $D013
   490 = D014			COLPM2	= $D014
   491 = D015			COLPM3	= $D015
   492 = D016			COLPF0	= $D016
   493 = D017			COLPF1	= $D017
   494 = D018			COLPF2	= $D018
   495 = D019			COLPF3	= $D019
   496 = D01A			COLBK	= $D01A
   497 = D01B			PRIOR	= $D01B
   498 = D01D			GRACTL	= $D01D
   499 = D01E			HITCLR	= $D01E
   500 = D01F			CONSOL	= $D01F
   501 = D200			AUDF1	= $D200
   502 = D201			AUDC1	= $D201
   503 = D202			AUDF2	= $D202
   504 = D203			AUDC2	= $D203
   505 = D204			AUDF3	= $D204
   506 = D205			AUDC3	= $D205
   507 = D206			AUDF4	= $D206
   508 = D207			AUDC4	= $D207
   509 = D208			AUDCTL	= $D208
   510 = D209			KBCODE	= $D209
   511 = D20E			IRQEN	= $D20E
   512 = D20F			SKSTAT	= $D20F
   513 = D300			PORTA	= $D300
   514 = D301			PORTB	= $D301
   515 = D400			DMACTL	= $D400
   516 = D401			CHACTL	= $D401
   517 = D402			DLISTL	= $D402
   518 = D404			HSCROL	= $D404
   519 = D405			VSCROL	= $D405
   520 = D407			PMBASE	= $D407
   521 = D409			CHBASE	= $D409
   522 = D40A			WSYNC	= $D40A
   523 = D40B			VCOUNT	= $D40B
   524 = D40C			PENH	= $D40C
   525 = D40D			PENV	= $D40D
   526 = D40E			NMIEN	= $D40E
   527 = FFFA			NMIVEC	= $FFFA
   528 = FFFC			RESETVEC	= $FFFC
   529 = FFFE			IRQVEC	= $FFFE
   530
   531 				.endl							; UNIT ATARI
   532
   533 				; ------------------------------------------------------------
   534
   535 2AE4			.local	CRT						; UNIT
   536
   537 2AE4			.local	CURSOROFF					; PROCEDURE
   538
   539 				; optimize OK (crt_atari.inc), line = 8
   540
   541 2AE4 A9 01			lda #$01
   542 2AE6 8D F0 02			sta ATARI.CRSINH
   543
   544 				; optimize FAIL ('@print', crt_atari.inc), line = 10
   545
   546 					@print #$1F
   546 				 LDY# $1F\ JSR @PRINT
   546 2AE9 A0 1F		 LDY# $1F
   546 2AEB 20 23 29		 JSR @PRINT
   547 					@print #$1E
   547 				 LDY# $1E\ JSR @PRINT
   547 2AEE A0 1E		 LDY# $1E
   547 2AF0 20 23 29		 JSR @PRINT
   548 2AF3			@exit
   549 					.ifdef @new
   550 					lda <@VarData
   551 					sta :ztmp
   552 					lda >@VarData
   553 					ldy #@VarDataSize-1
   554 					jmp @FreeMem
   555 					els
   556 2AF3 60				rts						; ret
   557 					eif
   558 				.endl
   559
   560 2AF4			.local	CURSORON					; PROCEDURE
   561
   562 				; optimize OK (crt_atari.inc), line = 21
   563
   564 2AF4 A9 00			lda #$00
   565 2AF6 8D F0 02			sta ATARI.CRSINH
   566
   567 				; optimize FAIL ('@print', crt_atari.inc), line = 23
   568
   569 					@print #$1F
   569 				 LDY# $1F\ JSR @PRINT
   569 2AF9 A0 1F		 LDY# $1F
   569 2AFB 20 23 29		 JSR @PRINT
   570 					@print #$1E
   570 				 LDY# $1E\ JSR @PRINT
   570 2AFE A0 1E		 LDY# $1E
   570 2B00 20 23 29		 JSR @PRINT
   571 2B03			@exit
   572 					.ifdef @new
   573 					lda <@VarData
   574 					sta :ztmp
   575 					lda >@VarData
   576 					ldy #@VarDataSize-1
   577 					jmp @FreeMem
   578 					els
   579 2B03 60				rts						; ret
   580 					eif
   581 				.endl
   582
   583 2B04			.local	KEYPRESSED					; FUNCTION | ASSEMBLER
   584
   585 				; ---------------------  ASM Block 056  ---------------------
   586
   587 2B04 A0 00			ldy #$00	; false
   588 2B06 AD FC 02			lda kbcodes
   589 2B09 C9 FF			cmp #$ff
   590 2B0B F0 01			beq skp
   591 2B0D C8				iny		; true
   592
   593 				;	sty kbcodes
   594
   595 2B0E 8C 60 3E		skp	sty Result
   596
   597 2B11			@exit
   598
   599 				; ------------------------------------------------------------
   600
   601 = 3E60			RESULT	= DATAORIGIN+$0118
   602
   603 = 3E60			@VarData	= RESULT
   604 = 0001			@VarDataSize	= 1
   605
   606 2B11 60				rts						; ret
   607 				.endl
   608
   609 				; ------------------------------------------------------------
   610
   611 = 3E5F			TEXTATTR	= DATAORIGIN+$0117
   612 = D01F			CONSOL	= $D01F
   613 = 0000			CN_START_SELECT_OPTION	= $00
   614 = 0001			CN_SELECT_OPTION	= $01
   615 = 0002			CN_START_OPTION	= $02
   616 = 0003			CN_OPTION	= $03
   617 = 0004			CN_START_SELECT	= $04
   618 = 0005			CN_SELECT	= $05
   619 = 0006			CN_START	= $06
   620 = 0007			CN_NONE	= $07
   621 = 0000			BW40	= $00
   622 = 0001			CO40	= $01
   623 = 0002			BW80	= $02
   624 = 0003			CO80	= $03
   625 = 0007			MONO	= $07
   626 = 0001			C40	= $01
   627 = 0003			C80	= $03
   628 = 0000			BLACK	= $00
   629 = 000F			WHITE	= $0F
   630 = 0026			RED	= $26
   631 = 00AC			CYAN	= $AC
   632 = 0048			PURPLE	= $48
   633 = 00B6			GREEN	= $B6
   634 = 0086			BLUE	= $86
   635 = 00DC			YELLOW	= $DC
   636 = 0018			ORANGE	= $18
   637 = 00F4			BROWN	= $F4
   638 = 002A			LIGHT_RED	= $2A
   639 = 0004			DARK_GREY	= $04
   640 = 0008			GREY	= $08
   641 = 00BC			LIGHT_GREEN	= $BC
   642 = 009A			LIGHT_BLUE	= $9A
   643 = 000C			LIGHT_GREY	= $0C
   644 = 0080			BLINK	= $80
   645
   646 				.endl							; UNIT CRT
   647
   648 				; ------------------------------------------------------------
   649
   650 2B12			.local	CIO						; UNIT
   651
   652 2B12			.local	OPN						; PROCEDURE | ASSEMBLER
   653
   654 				; ---------------------  ASM Block 063  ---------------------
   655
   656 2B12 8A 48			txa:pha
   657
   658 2B14 AD 61 3E			lda chn
   659 2B17 0A 0A 0A 0A			:4 asl @
   660 2B1B AA				tax
   661
   662 2B1C A9 03			lda #$03		;komenda: OPEN
   663 2B1E 9D 42 03			sta iccmd,x
   664
   665 2B21 EE 64 3E D0 03 EE + 	inw device		;omin bajt z dlugoscia STRING-a
   666
   667 2B29 AD 64 3E			lda device		;adres nazwy pliku
   668 2B2C 9D 44 03			sta icbufa,x
   669 2B2F AD 65 3E			lda device+1
   670 2B32 9D 45 03			sta icbufa+1,x
   671
   672 2B35 AD 62 3E			lda ax1			;kod dostepu: $04 odczyt, $08 zapis, $09 dopisywanie, $0c odczyt/zapis, $0d odczyt/dopisywanie
   673 2B38 9D 4A 03			sta icax1,x
   674
   675 2B3B AD 63 3E			lda ax2			;dodatkowy parametr, $00 jest zawsze dobre
   676 2B3E 9D 4B 03			sta icax2,x
   677
   678 2B41				m@call	ciov
Macro: M@CALL [Source: macros.asm]
    12 2B41 20 56 E4				jsr CIOV
Source: heatmap.a65
   679
   680 2B44 8C 4F 3D			sty MAIN.SYSTEM.IOResult
   681
   682 2B47 68 AA			pla:tax
   683
   684
   685 				; ------------------------------------------------------------
   686
   687 = 3E61			CHN	= DATAORIGIN+$0119
   688 = 3E62			AX1	= DATAORIGIN+$011A
   689 = 3E63			AX2	= DATAORIGIN+$011B
   690 = 3E64			DEVICE	= DATAORIGIN+$011C
   691
   692 = 3E61			@VarData	= CHN
   693 = 0005			@VarDataSize	= 5
   694
   695 2B49			@exit
   696 					.ifdef @new
   697 					lda <@VarData
   698 					sta :ztmp
   699 					lda >@VarData
   700 					ldy #@VarDataSize-1
   701 					jmp @FreeMem
   702 					els
   703 2B49 60				rts						; ret
   704 					eif
   705 				.endl
   706
   707 2B4A			.local	CLS						; PROCEDURE | ASSEMBLER
   708 2B4A 8D 66 3E			sta CHN
   709
   710 				; ---------------------  ASM Block 064  ---------------------
   711
   712 2B4D 8A 48			txa:pha
   713
   714 2B4F AD 66 3E			lda chn
   715 2B52 0A 0A 0A 0A			:4 asl @
   716 2B56 AA				tax
   717
   718 2B57 A9 0C			lda #$0c		;komenda: CLOSE
   719 2B59 9D 42 03			sta iccmd,x
   720
   721 2B5C				m@call	ciov
Macro: M@CALL [Source: macros.asm]
    12 2B5C 20 56 E4				jsr CIOV
Source: heatmap.a65
   722
   723 2B5F 8C 4F 3D			sty MAIN.SYSTEM.IOResult
   724
   725 2B62 68 AA			pla:tax
   726
   727
   728 				; ------------------------------------------------------------
   729
   730 = 3E66			CHN	= DATAORIGIN+$011E
   731
   732 = 3E66			@VarData	= CHN
   733 = 0001			@VarDataSize	= 1
   734
   735 2B64			@exit
   736 					.ifdef @new
   737 					lda <@VarData
   738 					sta :ztmp
   739 					lda >@VarData
   740 					ldy #@VarDataSize-1
   741 					jmp @FreeMem
   742 					els
   743 2B64 60				rts						; ret
   744 					eif
   745 				.endl
   746
   747 2B65			.local	RGET						; FUNCTION | REGISTER
   748
   749 				; ---------------------  ASM Block 070  ---------------------
   750
   751 2B65 8A 48			txa:pha
   752
   753 2B67 A5 88		        lda chn
   754 2B69 0A 0A 0A 0A		        :4 asl @
   755 2B6D AA			        tax
   756
   757 2B6E A9 05		        lda #5
   758 2B70 9D 42 03		        sta iccmd,x
   759
   760 2B73 A5 8C		        lda buffer
   761 2B75 9D 44 03		        sta icbufa,x
   762 2B78 A5 8D		        lda buffer+1
   763 2B7A 9D 45 03		        sta icbufa+1,x
   764 2B7D A9 FF		        lda #$ff
   765 2B7F 9D 48 03		        sta icbufl,x
   766 2B82 A9 00		        lda #0
   767 2B84 9D 49 03		        sta icbufl+1,x
   768
   769 2B87			        m@call	ciov
Macro: M@CALL [Source: macros.asm]
    12 2B87 20 56 E4				jsr CIOV
Source: heatmap.a65
   770
   771 2B8A 68 AA			pla:tax
   772 				     
   773 2B8C A9 00 8D 89 3E		mva #$00 adr.TMP
   774
   775 				; optimize OK (CIO), line = 334
   776
   777 2B91 A9 00			lda #$00
   778 2B93 8D 88 3E			sta CNT
   779
   780 				; --- WhileProlog
   781 2B96 4C DC 2B			jmp l_041E
   782 2B99			l_041F
   783
   784 				; optimize OK (CIO), line = 338
   785
   786 2B99 A4 8C 84 82 A4 8D + 	mwy BUFFER :bp2
   787 2BA1 AC 88 3E			ldy CNT
   788 2BA4 B1 82			lda (:bp2),y
   789 2BA6 8D 5E 3D			sta SYSTEM.CONCAT_03DF.B
   790 2BA9 AD 0F 2C			lda TMP
   791 2BAC 8D 5C 3D			sta SYSTEM.CONCAT_03DF.A
   792 2BAF AD 10 2C			lda TMP+1
   793 2BB2 8D 5D 3D			sta SYSTEM.CONCAT_03DF.A+1
   794 2BB5 20 AA 2A			jsr SYSTEM.CONCAT_03DF
   795 2BB8 E8				inx
   796 2BB9 AD DE 2A			lda SYSTEM.CONCAT_03DF.RESULT
   797 2BBC 85 88			sta @move.src
   798 2BBE AD DF 2A			lda SYSTEM.CONCAT_03DF.RESULT+1
   799 2BC1 85 89			sta @move.src+1
   800 					@moveSTRING TMP #33
   800 				 MWA TMP @MOVE.DST\ MWA #33 @MOVE.CNT\ JSR @MOVESTRING
   800 2BC3 AD 0F 2C 85 8C AD +  MWA TMP @MOVE.DST
   800 2BCD A9 21 85 84 A9 00 +  MWA #33 @MOVE.CNT
   800 2BD5 20 F4 25		 JSR @MOVESTRING
   801 2BD8 CA				dex
   802
   803 				; optimize FAIL (0, CIO), line = 339
   804
   805 2BD9 EE 88 3E			inc CNT
   806 2BDC			l_041E
   807
   808 				; optimize OK (CIO), line = 337
   809
   810 2BDC A4 8C 84 82 A4 8D + 	mwy BUFFER :bp2
   811 2BE4 AC 88 3E			ldy CNT
   812 2BE7 B1 82			lda (:bp2),y
   813 2BE9 C9 9B			cmp #$9B
   814 2BEB D0 AC			jne l_041F
   815
   816 				; optimize OK (CIO), line = 342
   817
   818 2BED AD 0F 2C			lda TMP
   819 2BF0 85 88			sta @move.src
   820 2BF2 AD 10 2C			lda TMP+1
   821 2BF5 85 89			sta @move.src+1
   822 					@moveSTRING RESULT #33
   822 				 MWA RESULT @MOVE.DST\ MWA #33 @MOVE.CNT\ JSR @MOVESTRING
   822 2BF7 AD 0D 2C 85 8C AD +  MWA RESULT @MOVE.DST
   822 2C01 A9 21 85 84 A9 00 +  MWA #33 @MOVE.CNT
   822 2C09 20 F4 25		 JSR @MOVESTRING
   823 2C0C			@exit
   824
   825 				; ------------------------------------------------------------
   826
   827 = 0088			CHN	= :EDX
   828 = 008C			BUFFER	= :ECX
   829 = 3E67			adr.RESULT	= [DATAORIGIN+$011F] .array [33]
   830 2C0C			.var RESULT	= adr.RESULT .word
   831 = 3E88			CNT	= DATAORIGIN+$0140
   832 = 3E89			adr.TMP	= [DATAORIGIN+$0141] .array [33]
   833 2C0C			.var TMP	= adr.TMP .word
   834
   835 = 2C0D			@VarData	= RESULT
   836 = 0043			@VarDataSize	= 67
   837
   838 2C0C 60				rts						; ret
   839 = 2C0D 67 3E		RESULT
   839 = 2C0F 89 3E		TMP
   839 				.endl
   840
   841 2C11			.local	RSKIP						; PROCEDURE | ASSEMBLER | REGISTER
   842
   843 				; ---------------------  ASM Block 071  ---------------------
   844
   845 2C11 8A 48			txa:pha
   846
   847 2C13 A5 88			lda chn
   848 2C15 0A 0A 0A 0A		        :4 asl @
   849 2C19 AA			        tax
   850
   851 2C1A A9 05		        lda #5
   852 2C1C 9D 42 03		        sta iccmd,x
   853
   854 2C1F A5 8C		        lda buffer
   855 2C21 9D 44 03		        sta icbufa,x
   856 2C24 A5 8D		        lda buffer+1
   857 2C26 9D 45 03		        sta icbufa+1,x
   858 2C29 A9 FF		        lda #$ff
   859 2C2B 9D 48 03		        sta icbufl,x
   860 2C2E A9 00		        lda #0
   861 2C30 9D 49 03		        sta icbufl+1,x
   862
   863 2C33				m@call ciov
Macro: M@CALL [Source: macros.asm]
    12 2C33 20 56 E4				jsr CIOV
Source: heatmap.a65
   864
   865 2C36 68 AA			pla:tax
   866
   867
   868 				; ------------------------------------------------------------
   869
   870 = 0088			CHN	= :EDX
   871 = 008C			BUFFER	= :ECX
   872 2C38			@exit
   873 					.ifdef @new
   874 					lda <@VarData
   875 					sta :ztmp
   876 					lda >@VarData
   877 					ldy #@VarDataSize-1
   878 					jmp @FreeMem
   879 					els
   880 2C38 60				rts						; ret
   881 					eif
   882 				.endl
   883
   884 2C39			.local	FINDFIRSTFREECHANNEL				; FUNCTION | ASSEMBLER
   885
   886 				; ---------------------  ASM Block 072  ---------------------
   887
   888 2C39 8A 48			txa:pha
   889
   890 2C3B A2 00			ldx #$00
   891 2C3D A0 01		        ldy #$01
   892 2C3F BD 40 03		loop	lda icchid,x
   893 2C42 C9 FF		        cmp #$ff
   894 2C44 F0 09		        beq found
   895 2C46 8A			        txa
   896 2C47 18			        clc
   897 2C48 69 10		        adc #$10
   898 2C4A AA			        tax
   899 2C4B 10 F2		        bpl loop
   900 2C4D A2 A1		        ldx #-95
   901 2C4F 8E AA 3E		found 	stx Result
   902
   903 2C52 68 AA			pla:tax
   904
   905 2C54			@exit
   906
   907 				; ------------------------------------------------------------
   908
   909 = 3EAA			RESULT	= DATAORIGIN+$0162
   910
   911 = 3EAA			@VarData	= RESULT
   912 = 0001			@VarDataSize	= 1
   913
   914 2C54 60				rts						; ret
   915 				.endl
   916
   917 				; ------------------------------------------------------------
   918
   919 				.endl							; UNIT CIO
   920
   921 				; ------------------------------------------------------------
   922
   923 2C55			.local	STRINGUTILS					; UNIT
   924
   925 2C55			.local	STRRIGHT					; FUNCTION
   926
   927 				; ------------------------------------------------------------
   928
   929 				; Generate Assignment for WORD / SMALLINT / SHORTREAL / POINTER
   930 				; as Pointer
   931 2C55 B5 94			lda :STACKORIGIN,x
   932 2C57 85 82			sta :bp2
   933 2C59 B5 A4			lda :STACKORIGIN+STACKWIDTH,x
   934 2C5B 85 83			sta :bp2+1
   935 2C5D A0 00			ldy #$00
   936 2C5F B1 82 99 AB 3E C8 + 	mva:rne (:bp2),y adr.S,y+
   937 2C67 A9 AB 8D FF 2C A9 + 	mwa #adr.S S
   938 2C71 CA				dex
   939 2C72 30 06			jmi @main
   940
   941 				; ------------------------------------------------------------
   942
   943 				; Generate Assignment for BYTE / CHAR / SHORTINT / BOOLEAN
   944 				; as Pointer
   945 2C74 B5 94			lda :STACKORIGIN,x
   946 2C76 8D AB 3F			sta COUNT
   947 2C79 CA				dex
   948 2C7A			@main
   949
   950 				; optimize OK (STRINGUTILS), line = 287
   951
   952 2C7A AD 03 2D			lda R
   953 2C7D 85 88			sta SYSTEM.SETLENGTH.S
   954 2C7F AD 04 2D			lda R+1
   955 2C82 85 89			sta SYSTEM.SETLENGTH.S+1
   956 2C84 AD AB 3F			lda COUNT
   957 2C87 85 8C			sta SYSTEM.SETLENGTH.LEN
   958 2C89 20 86 2A			jsr SYSTEM.SETLENGTH
   959
   960 				; optimize OK (STRINGUTILS), line = 288
   961
   962 2C8C AD AB 3E			lda adr.S
   963 2C8F 38 ED AB 3F			sub COUNT
   964 2C93 18 69 01			add #$01
   965 2C96 8D AC 41			sta I
   966 2C99 AD AB 3E 8D A0 2C		mva adr.S @FORTMP_0468_0
   967
   968 2C9F			l_046B
   969 				; --- ForToDoCondition
   970 2C9F A9 00			lda @FORTMP_0468_0:#$00
   971 2CA1 CD AC 41			cmp I
   972 2CA4 90 3B			jcc l_0479
   973 2CA6 AD AB 3E			lda adr.S
   974 2CA9 38 ED AB 3F			sub COUNT
   975 2CAD 85 9E			sta :STACKORIGIN+10
   976 2CAF A9 00			lda #$00
   977 2CB1 E9 00			sbc #$00
   978 2CB3 85 AE			sta :STACKORIGIN+STACKWIDTH+10
   979 2CB5 AD AC 41			lda I
   980 2CB8 38 E5 9E			sub :STACKORIGIN+10
   981 2CBB 85 9D			sta :STACKORIGIN+9
   982 2CBD A9 00			lda #$00
   983 2CBF E5 AE			sbc :STACKORIGIN+STACKWIDTH+10
   984 2CC1 85 AD			sta :STACKORIGIN+STACKWIDTH+9
   985 2CC3 AC AC 41			ldy I
   986 2CC6 B9 AB 3E			lda adr.S,y
   987 2CC9 85 9E			sta :STACKORIGIN+10
   988 2CCB A5 9D			lda :STACKORIGIN+9
   989 2CCD 18 69 00			add #$00
   990 2CD0 A8				tay
   991 2CD1 A5 AD			lda :STACKORIGIN+STACKWIDTH+9
   992 2CD3 69 00			adc #$00
   993 2CD5 85 AD			sta :STACKORIGIN+STACKWIDTH+9
   994 2CD7 A5 9E			lda :STACKORIGIN+10
   995 2CD9 99 AC 40			sta adr.R,y
   996
   997 				; --- ForToDoEpilog
   998 2CDC EE AC 41			inc I
   999 2CDF D0 BE			jne l_046B
  1000 2CE1			l_0479
  1001
  1002 				; optimize OK (STRINGUTILS), line = 289
  1003
  1004 2CE1 AD 03 2D			lda R
  1005 2CE4 85 88			sta @move.src
  1006 2CE6 AD 04 2D			lda R+1
  1007 2CE9 85 89			sta @move.src+1
  1008 2CEB AC 01 2D 84 82 AC + 	mwy RESULT :bp2
  1009 2CF5 A0 00			ldy #$00
  1010 2CF7 B1 88 91 82 C8 D0 + 	mva:rne (@move.src),y (:bp2),y+
  1011 2CFE			@exit
  1012
  1013 				; ------------------------------------------------------------
  1014
  1015 = 3EAB			adr.S	= [DATAORIGIN+$0163] .array [256]
  1016 2CFE			.var S	= adr.S .word
  1017 = 3FAB			COUNT	= DATAORIGIN+$0263
  1018 = 3FAC			adr.RESULT	= [DATAORIGIN+$0264] .array [256]
  1019 2CFE			.var RESULT	= adr.RESULT .word
  1020 = 40AC			adr.R	= [DATAORIGIN+$0364] .array [256]
  1021 2CFE			.var R	= adr.R .word
  1022 = 41AC			I	= DATAORIGIN+$0464
  1023
  1024 = 2CFF			@VarData	= S
  1025 = 0302			@VarDataSize	= 770
  1026
  1027 2CFE 60				rts						; ret
  1028 = 2CFF AB 3E		S
  1028 = 2D01 AC 3F		RESULT
  1028 = 2D03 AC 40		R
  1028 				.endl
  1029
  1030 2D05			.local	STRPOS_0497					; FUNCTION | OVERLOAD
  1031
  1032 				; ------------------------------------------------------------
  1033
  1034 				; Generate Assignment for BYTE / CHAR / SHORTINT / BOOLEAN
  1035 				; as Pointer
  1036 2D05 B5 94			lda :STACKORIGIN,x
  1037 2D07 8D AE 41			sta C
  1038 2D0A CA				dex
  1039 2D0B 30 1D			jmi @main
  1040
  1041 				; ------------------------------------------------------------
  1042
  1043 				; Generate Assignment for WORD / SMALLINT / SHORTREAL / POINTER
  1044 				; as Pointer
  1045 2D0D B5 94			lda :STACKORIGIN,x
  1046 2D0F 85 82			sta :bp2
  1047 2D11 B5 A4			lda :STACKORIGIN+STACKWIDTH,x
  1048 2D13 85 83			sta :bp2+1
  1049 2D15 A0 00			ldy #$00
  1050 2D17 B1 82 99 AF 41 C8 + 	mva:rne (:bp2),y adr.S,y+
  1051 2D1F A9 AF 8D 62 2D A9 + 	mwa #adr.S S
  1052 2D29 CA				dex
  1053 2D2A			@main
  1054
  1055 				; optimize OK (STRINGUTILS), line = 307
  1056
  1057 2D2A AD AF 41			lda adr.S
  1058 2D2D 8D B0 42			sta SLEN
  1059
  1060 				; optimize OK (STRINGUTILS), line = 308
  1061
  1062 2D30 A9 00			lda #$00
  1063 2D32 8D AF 42			sta RESULT
  1064
  1065 				; optimize OK (STRINGUTILS), line = 310
  1066
  1067 2D35 A9 01			lda #$01
  1068 2D37 8D B1 42			sta I
  1069 2D3A AC B0 42			ldy SLEN
  1070 2D3D 88				dey
  1071 2D3E 8C 42 2D			sty @FORTMP_04B3_0
  1072
  1073 2D41			l_04B6
  1074 				; --- ForToDoCondition
  1075 2D41 A9 00			lda @FORTMP_04B3_0:#$00
  1076 2D43 CD B1 42			cmp I
  1077 2D46 90 19			jcc l_04C4
  1078
  1079 				; optimize OK (STRINGUTILS), line = 312
  1080
  1081 2D48 AC B1 42			ldy I
  1082 2D4B B9 AF 41			lda adr.S,y
  1083 2D4E CD AE 41			cmp C
  1084 2D51 D0 09			jne l_04DB
  1085
  1086 				; optimize OK (STRINGUTILS), line = 314
  1087
  1088 2D53 AD B1 42			lda I
  1089 2D56 8D AF 42			sta RESULT
  1090 2D59 4C 61 2D			jmp b_04B6					; break
  1091 2D5C			l_04DB
  1092
  1093 				; --- ForToDoEpilog
  1094 2D5C EE B1 42			inc I
  1095 2D5F D0 E0			jne l_04B6
  1096 2D61			l_04C4
  1097 2D61			b_04B6
  1098 2D61			@exit
  1099
  1100 				; ------------------------------------------------------------
  1101
  1102 = 41AE			C	= DATAORIGIN+$0466
  1103 = 41AF			adr.S	= [DATAORIGIN+$0467] .array [256]
  1104 2D61			.var S	= adr.S .word
  1105 = 42AF			RESULT	= DATAORIGIN+$0567
  1106 = 42B0			SLEN	= DATAORIGIN+$0568
  1107 = 42B1			I	= DATAORIGIN+$0569
  1108
  1109 = 41AE			@VarData	= C
  1110 = 0104			@VarDataSize	= 260
  1111
  1112 2D61 60				rts						; ret
  1113 = 2D62 AF 41		S
  1113 				.endl
  1114
  1115 				; ------------------------------------------------------------
  1116
  1117 				.endl							; UNIT STRINGUTILS
  1118
  1119 				; ------------------------------------------------------------
  1120
  1121 2D64			.local	TYPES						; UNIT
  1122
  1123 				; ------------------------------------------------------------
  1124
  1125 				.endl							; UNIT TYPES
  1126
  1127 				; ------------------------------------------------------------
  1128
  1129 2D64			.local	GRAPH						; UNIT
  1130
  1131 2D64			.local	INITGRAPH_0517					; PROCEDURE | OVERLOAD
  1132 2D64 8D D0 42			sta MODE
  1133
  1134 				; ---------------------  ASM Block 074  ---------------------
  1135
  1136 2D67 8A 48			txa:pha
  1137
  1138 2D69 AD D0 42			lda mode
  1139 2D6C 8D 4E 3D			sta MAIN.SYSTEM.GraphMode
  1140 2D6F 29 0F			and #$0f
  1141 2D71 A8				tay
  1142
  1143 2D72 A2 60			ldx #$60		; 6*16
  1144 2D74 AD D0 42			lda mode		; %00010000 with text window
  1145 2D77 29 10			and #$10
  1146 2D79 49 10			eor #$10
  1147 2D7B 09 02			ora #2			; read
  1148
  1149 					.nowarn @GRAPHICS
  1149 2D7D 20 D4 23		 JSR @GRAPHICS
  1150
  1151 2D80 8C BB 42			sty GraphResult
  1152
  1153
  1154 					.ifdef MAIN.@DEFINES.ROMOFF
  1155 					inc portb
  1156 					.endif
  1157
  1158 2D83 A6 57			ldx dindex
  1159 2D85 BC 73 23			ldy adr.tlshc,x
  1160 2D88 A9 05			lda #5
  1161 2D8A 0A			shift	asl @
  1162 2D8B 88				dey
  1163 2D8C D0 FC			bne shift
  1164
  1165 2D8E 8D CB 42			sta SCANLINE_WIDTH
  1166
  1167 				; Fox/TQA
  1168
  1169 = 0057			dindex	equ $57
  1170
  1171 2D91 A6 57			ldx dindex
  1172 2D93 BD 83 23			lda adr.tmccn,x
  1173 2D96 BC 93 23			ldy adr.tmrcn,x
  1174 2D99 A2 00			ldx #0
  1175 2D9B C9 40			cmp #<320
  1176 2D9D D0 01 E8			sne:inx
  1177
  1178 				; X:A = horizontal resolution
  1179 				; Y = vertical resolution
  1180
  1181 2DA0 20 F4 24			@SCREENSIZE
  1182
  1183 					.ifdef MAIN.@DEFINES.ROMOFF
  1184 					dec portb
  1185 					.endif
  1186
  1187 2DA3 68 AA			pla:tax
  1188 				 
  1189
  1190 				; optimize OK (graph_atari.inc), line = 85
  1191
  1192 2DA5 A5 58			lda ATARI.SAVMSC
  1193 2DA7 8D BD 42			sta VIDEORAM
  1194 2DAA A5 59			lda ATARI.SAVMSC+1
  1195 2DAC 8D BE 42			sta VIDEORAM+1
  1196
  1197 				; ------------------------------------------------------------
  1198
  1199 = 42D0			MODE	= DATAORIGIN+$0588
  1200 = 2373			adr.TLSHC	= CODEORIGIN+$0373
  1201 2DAF			.var TLSHC	= adr.TLSHC .word
  1202 = 2383			adr.TMCCN	= CODEORIGIN+$0383
  1203 2DAF			.var TMCCN	= adr.TMCCN .word
  1204 = 2393			adr.TMRCN	= CODEORIGIN+$0393
  1205 2DAF			.var TMRCN	= adr.TMRCN .word
  1206
  1207 = 42D0			@VarData	= MODE
  1208 = 0001			@VarDataSize	= 1
  1209
  1210 2DAF			@exit
  1211 					.ifdef @new
  1212 					lda <@VarData
  1213 					sta :ztmp
  1214 					lda >@VarData
  1215 					ldy #@VarDataSize-1
  1216 					jmp @FreeMem
  1217 					els
  1218 2DAF 60				rts						; ret
  1219 					eif
  1220 = 2DB0 73 23		TLSHC
  1220 = 2DB2 83 23		TMCCN
  1220 = 2DB4 93 23		TMRCN
  1220 				.endl
  1221
  1222 2DB6			.local	SETCOLOR					; PROCEDURE | ASSEMBLER
  1223 2DB6 8D D1 42			sta COLOR
  1224
  1225 				; ---------------------  ASM Block 077  ---------------------
  1226
  1227 2DB9 8D CC 23			sta @COMMAND.colscr
  1228 2DBC 8D BC 42			sta GetColor
  1229
  1230
  1231 				; ------------------------------------------------------------
  1232
  1233 = 42D1			COLOR	= DATAORIGIN+$0589
  1234
  1235 = 42D1			@VarData	= COLOR
  1236 = 0001			@VarDataSize	= 1
  1237
  1238 2DBF			@exit
  1239 					.ifdef @new
  1240 					lda <@VarData
  1241 					sta :ztmp
  1242 					lda >@VarData
  1243 					ldy #@VarDataSize-1
  1244 					jmp @FreeMem
  1245 					els
  1246 2DBF 60				rts						; ret
  1247 					eif
  1248 				.endl
  1249
  1250 2DC0			.local	PUTPIXEL_0521					; PROCEDURE | ASSEMBLER | OVERLOAD
  1251
  1252 				; ---------------------  ASM Block 078  ---------------------
  1253
  1254 2DC0 8A 48			txa:pha
  1255
  1256 2DC2 AD D5 42			lda y+1
  1257 2DC5 30 37			bmi stop
  1258 2DC7 CD 4B 3D			cmp MAIN.SYSTEM.ScreenHeight+1
  1259 2DCA D0 06			bne sk0
  1260 2DCC AD D4 42			lda y
  1261 2DCF CD 4A 3D			cmp MAIN.SYSTEM.ScreenHeight
  1262 2DD2			sk0
  1263 2DD2 B0 2A			bcs stop
  1264
  1265 2DD4 AD D3 42			lda x+1
  1266 2DD7 30 25			bmi stop
  1267 2DD9 CD 49 3D			cmp MAIN.SYSTEM.ScreenWidth+1
  1268 2DDC D0 06			bne sk1
  1269 2DDE AD D2 42			lda x
  1270 2DE1 CD 48 3D			cmp MAIN.SYSTEM.ScreenWidth
  1271 2DE4			sk1
  1272 2DE4 B0 18			bcs stop
  1273
  1274 2DE6 AD D2 42 85 55 AD + 	mwa x colcrs
  1275 2DF0 AD D4 42 85 54		mva y rowcrs
  1276
  1277 				;	lda #@IDput		; slower
  1278 				;	jsr @COMMAND
  1279
  1280 2DF5 AE B7 23			ldx @COMMAND.scrchn	; faster
  1281 2DF8 AD CC 23			lda @COMMAND.colscr
  1282
  1283 2DFB				m@call	@putchar.main
Macro: M@CALL [Source: macros.asm]
    12 2DFB 20 AB 23				jsr @PUTCHAR.MAIN
Source: heatmap.a65
  1284
  1285 2DFE 68 AA		stop	pla:tax
  1286
  1287
  1288
  1289 				; ------------------------------------------------------------
  1290
  1291 = 42D2			X	= DATAORIGIN+$058A
  1292 = 42D4			Y	= DATAORIGIN+$058C
  1293
  1294 = 42D2			@VarData	= X
  1295 = 0004			@VarDataSize	= 4
  1296
  1297 2E00			@exit
  1298 					.ifdef @new
  1299 					lda <@VarData
  1300 					sta :ztmp
  1301 					lda >@VarData
  1302 					ldy #@VarDataSize-1
  1303 					jmp @FreeMem
  1304 					els
  1305 2E00 60				rts						; ret
  1306 					eif
  1307 				.endl
  1308
  1309 				; ------------------------------------------------------------
  1310
  1311 = 0080			CURRENTDRIVER	= $80
  1312 = 0000			DETECT	= $00
  1313 = 0001			CGA	= $01
  1314 = 0002			MCGA	= $02
  1315 = 0003			EGA	= $03
  1316 = 0004			EGA64	= $04
  1317 = 0005			EGAMONO	= $05
  1318 = 0006			LOWRES	= $06
  1319 = 0007			HERCMONO	= $07
  1320 = 0009			VGA	= $09
  1321 = 000A			VESA	= $0A
  1322 = 000B			D1BIT	= $0B
  1323 = 000C			D2BIT	= $0C
  1324 = 000D			D4BIT	= $0D
  1325 = 000E			D6BIT	= $0E
  1326 = 000F			D8BIT	= $0F
  1327 = 0010			D12BIT	= $10
  1328 = 0018			M640X400	= $18
  1329 = 0018			M640X480	= $18
  1330 = 0001			GROK	= $01
  1331 = 00FF			GRNOINITGRAPH	= $FF
  1332 = 00FE			GRNOTDETECTED	= $FE
  1333 = 00FD			GRFILENOTFOUND	= $FD
  1334 = 00FC			GRINVALIDDRIVER	= $FC
  1335 = 00FB			GRNOLOADMEM	= $FB
  1336 = 00FA			GRNOSCANMEM	= $FA
  1337 = 00F9			GRNOFLOODMEM	= $F9
  1338 = 00F8			GRFONTNOTFOUND	= $F8
  1339 = 00F7			GRNOFONTMEM	= $F7
  1340 = 00F6			GRINVALIDMODE	= $F6
  1341 = 00F5			GRERROR	= $F5
  1342 = 00F4			GRIOERROR	= $F4
  1343 = 00F3			GRINVALIDFONT	= $F3
  1344 = 00F2			GRINVALIDFONTNUM	= $F2
  1345 = 00EE			GRINVALIDVERSION	= $EE
  1346 = 0000			CGAC0	= $00
  1347 = 0001			CGAC1	= $01
  1348 = 0002			CGAC2	= $02
  1349 = 0003			CGAC3	= $03
  1350 = 0004			CGAHI	= $04
  1351 = 0000			MCGAC0	= $00
  1352 = 0001			MCGAC1	= $01
  1353 = 0002			MCGAC2	= $02
  1354 = 0003			MCGAC3	= $03
  1355 = 0004			MCGAMED	= $04
  1356 = 0005			MCGAHI	= $05
  1357 = 0000			EGALO	= $00
  1358 = 0001			EGAHI	= $01
  1359 = 0000			EGA64LO	= $00
  1360 = 0001			EGA64HI	= $01
  1361 = 0003			EGAMONOHI	= $03
  1362 = 000A			VGALO	= $0A
  1363 = 001F			VGAMED	= $1F
  1364 = 0018			VGAHI	= $18
  1365 = 42B3			WIN_LEFT	= DATAORIGIN+$056B
  1366 = 42B5			WIN_RIGHT	= DATAORIGIN+$056D
  1367 = 42B7			WIN_TOP	= DATAORIGIN+$056F
  1368 = 42B9			WIN_BOTTOM	= DATAORIGIN+$0571
  1369 = 42BB			GRAPHRESULT	= DATAORIGIN+$0573
  1370 = 42BC			GETCOLOR	= DATAORIGIN+$0574
  1371 = 42BD			VIDEORAM	= DATAORIGIN+$0575
  1372 = 42BF			adr.LASTARCCOORDS	= [DATAORIGIN+$0577] .array [5] ; type unknown
  1373 2E01			.var LASTARCCOORDS	= adr.LASTARCCOORDS .word
  1374 = 42BF			LASTARCCOORDS.X	= DATAORIGIN+$0577
  1375 = 42C1			LASTARCCOORDS.Y	= DATAORIGIN+$0579
  1376 = 42C3			LASTARCCOORDS.XSTART	= DATAORIGIN+$057B
  1377 = 42C5			LASTARCCOORDS.YSTART	= DATAORIGIN+$057D
  1378 = 42C7			LASTARCCOORDS.XEND	= DATAORIGIN+$057F
  1379 = 42C9			LASTARCCOORDS.YEND	= DATAORIGIN+$0581
  1380 = 42CB			SCANLINE_WIDTH	= DATAORIGIN+$0583
  1381 = 42CC			CURRENTX	= DATAORIGIN+$0584
  1382 = 42CE			CURRENTY	= DATAORIGIN+$0586
  1383
  1384 = 2E01 BF 42		LASTARCCOORDS
  1384 				.endl							; UNIT GRAPH
  1385
  1386 				; ------------------------------------------------------------
  1387
  1388 2E03			.local	DOS						; UNIT
  1389
  1390 				; ------------------------------------------------------------
  1391
  1392 = D014			PALNTSC	= $D014
  1393
  1394 				.endl							; UNIT DOS
  1395
  1396 				; ------------------------------------------------------------
  1397
  1398 2E03			.local	STRUTILS					; UNIT
  1399
  1400 				; ------------------------------------------------------------
  1401
  1402 				.endl							; UNIT STRUTILS
  1403
  1404 				; ------------------------------------------------------------
  1405
  1406 2E03			.local	SYSUTILS					; UNIT
  1407
  1408 				; ------------------------------------------------------------
  1409
  1410 = 0001			FAREADONLY	= $01
  1411 = 0002			FAHIDDEN	= $02
  1412 = 0004			FASYSFILE	= $04
  1413 = 0008			FAVOLUMEID	= $08
  1414 = 0010			FADIRECTORY	= $10
  1415 = 0020			FAARCHIVE	= $20
  1416 = 003F			FAANYFILE	= $3F
  1417
  1418 				.endl							; UNIT SYSUTILS
  1419
  1420 2E03			.local	CLEARKEYS					; PROCEDURE
  1421
  1422 				; optimize OK (heatmap.pas), line = 57
  1423
  1424 2E03 A9 FF			lda #$FF
  1425 2E05 8D FC 02			sta CH
  1426 2E08 A9 00			lda #$00
  1427 2E0A 8D 66 62			sta KEY
  1428 2E0D			@exit
  1429 					.ifdef @new
  1430 					lda <@VarData
  1431 					sta :ztmp
  1432 					lda >@VarData
  1433 					ldy #@VarDataSize-1
  1434 					jmp @FreeMem
  1435 					els
  1436 2E0D 60				rts						; ret
  1437 					eif
  1438 				.endl
  1439
  1440 2E0E			.local	GETSTRING					; FUNCTION
  1441 2E0E 8D 69 62			sta MAXCHARS
  1442
  1443 				; optimize OK (heatmap.pas), line = 77
  1444
  1445 2E11 A9 00			lda #$00
  1446 2E13 8D AE 62			sta SUCCESS
  1447
  1448 				; --- WhileProlog
  1449 2E16 4C 1C 2F			jmp l_05B1
  1450 2E19			l_05B2
  1451
  1452 				; optimize FAIL ('@print', heatmap.pas), line = 81
  1453
  1454 					@printSTRING #CODEORIGIN+$000F
  1454 				 LDY> CODEORIGIN+$000F\ LDA< CODEORIGIN+$000F\ JSR @PRINTSTRING
  1454 2E19 A0 20		 LDY> CODEORIGIN+$000F
  1454 2E1B A9 0F		 LDA< CODEORIGIN+$000F
  1454 2E1D 20 2C 29		 JSR @PRINTSTRING
  1455 2E20 20 1E 29			@printEOL
  1456
  1457 				; optimize FAIL ('@print', heatmap.pas), line = 82
  1458
  1459 					@printSTRING #CODEORIGIN+$0035
  1459 				 LDY> CODEORIGIN+$0035\ LDA< CODEORIGIN+$0035\ JSR @PRINTSTRING
  1459 2E23 A0 20		 LDY> CODEORIGIN+$0035
  1459 2E25 A9 35		 LDA< CODEORIGIN+$0035
  1459 2E27 20 2C 29		 JSR @PRINTSTRING
  1460 2E2A 20 1E 29			@printEOL
  1461
  1462 				; optimize FAIL ('@print', heatmap.pas), line = 83
  1463
  1464 					@printSTRING #CODEORIGIN+$005A
  1464 				 LDY> CODEORIGIN+$005A\ LDA< CODEORIGIN+$005A\ JSR @PRINTSTRING
  1464 2E2D A0 20		 LDY> CODEORIGIN+$005A
  1464 2E2F A9 5A		 LDA< CODEORIGIN+$005A
  1464 2E31 20 2C 29		 JSR @PRINTSTRING
  1465 2E34 20 1E 29			@printEOL
  1466
  1467 				; optimize FAIL ('@print', heatmap.pas), line = 84
  1468
  1469 					@printSTRING #CODEORIGIN+$0071
  1469 				 LDY> CODEORIGIN+$0071\ LDA< CODEORIGIN+$0071\ JSR @PRINTSTRING
  1469 2E37 A0 20		 LDY> CODEORIGIN+$0071
  1469 2E39 A9 71		 LDA< CODEORIGIN+$0071
  1469 2E3B 20 2C 29		 JSR @PRINTSTRING
  1470 2E3E 20 1E 29			@printEOL
  1471
  1472 				; optimize FAIL ('@print', heatmap.pas), line = 85
  1473
  1474 2E41 20 1E 29			@printEOL
  1475
  1476 				; ---------------------  ASM Block 115  ---------------------
  1477
  1478
  1479
  1480 = 0342			               iccmd    = $0342
  1481 = 0344			               icbufa   = $0344
  1482 = 0348			               icbufl   = $0348
  1483
  1484 2E44 A9 00		               lda #<TEXT_BUFFER
  1485 2E46 A0 90		               ldy #>TEXT_BUFFER
  1486 2E48 A2 00		               ldx #$00
  1487 2E4A 9D 44 03		               sta icbufa,x
  1488 2E4D 98			               tya
  1489 2E4E 9D 45 03		               sta icbufa+1,x
  1490 2E51 AD 69 62		               lda maxChars
  1491 2E54 9D 48 03		               sta icbufl,x
  1492 2E57 A9 00		               lda #$00
  1493 2E59 9D 49 03		               sta icbufl+1,x
  1494 2E5C A9 05		               lda #$05
  1495 2E5E 9D 42 03		               sta iccmd,x
  1496 2E61 20 56 E4		               jsr $E456
  1497 2E64 8C 67 62		               sty CIOResult;
  1498 				          
  1499
  1500 				; optimize OK (heatmap.pas), line = 109
  1501
  1502 2E67 AD 67 62			lda CIORESULT
  1503 2E6A C9 80			cmp #$80
  1504 2E6C D0 0F			jne l_05D0
  1505
  1506 				; optimize FAIL ('@print', heatmap.pas), line = 110
  1507
  1508 					@printSTRING #CODEORIGIN+$008D
  1508 				 LDY> CODEORIGIN+$008D\ LDA< CODEORIGIN+$008D\ JSR @PRINTSTRING
  1508 2E6E A0 20		 LDY> CODEORIGIN+$008D
  1508 2E70 A9 8D		 LDA< CODEORIGIN+$008D
  1508 2E72 20 2C 29		 JSR @PRINTSTRING
  1509 2E75 20 1E 29			@printEOL
  1510 2E78 A9 00			lda #$00
  1511 2E7A 4C 1F 3D			jmp @halt
  1512 2E7D			l_05D0
  1513
  1514 				; optimize OK (heatmap.pas), line = 116
  1515
  1516 2E7D AD 00 90			lda $9000
  1517 2E80 C9 2A			cmp #$2A
  1518 2E82 F0 03 4C 17 2F		jne l_05E9
  1519
  1520 				; optimize FAIL ('@print', heatmap.pas), line = 118
  1521
  1522 					@printSTRING #CODEORIGIN+$00A7
  1522 				 LDY> CODEORIGIN+$00A7\ LDA< CODEORIGIN+$00A7\ JSR @PRINTSTRING
  1522 2E87 A0 20		 LDY> CODEORIGIN+$00A7
  1522 2E89 A9 A7		 LDA< CODEORIGIN+$00A7
  1522 2E8B 20 2C 29		 JSR @PRINTSTRING
  1523 2E8E 20 1E 29			@printEOL
  1524
  1525 				; optimize FAIL ('@print', heatmap.pas), line = 119
  1526
  1527 2E91 20 1E 29			@printEOL
  1528
  1529 				; optimize OK (heatmap.pas), line = 121
  1530
  1531 2E94 AD D7 43			lda FREECHANNEL
  1532 2E97 8D 61 3E			sta CIO.OPN.CHN
  1533 2E9A A9 06			lda #$06
  1534 2E9C 8D 62 3E			sta CIO.OPN.AX1
  1535 2E9F A9 00			lda #$00
  1536 2EA1 8D 63 3E			sta CIO.OPN.AX2
  1537 2EA4 A9 BB			lda #$BB
  1538 2EA6 8D 64 3E			sta CIO.OPN.DEVICE
  1539 2EA9 A9 20			lda #$20
  1540 2EAB 8D 65 3E			sta CIO.OPN.DEVICE+1
  1541 2EAE 20 12 2B			jsr CIO.OPN
  1542
  1543 				; optimize OK (heatmap.pas), line = 123
  1544
  1545 2EB1 A9 01			lda #$01
  1546 2EB3 8D AD 62			sta ISANOTHER
  1547
  1548 				; --- WhileProlog
  1549 2EB6 4C 03 2F			jmp l_05FA
  1550 2EB9			l_05FB
  1551
  1552 				; optimize OK (heatmap.pas), line = 126
  1553
  1554 2EB9 AD D7 43			lda FREECHANNEL
  1555 2EBC 85 88			sta CIO.RGET.CHN
  1556 2EBE A9 00			lda #$00
  1557 2EC0 85 8C			sta CIO.RGET.BUFFER
  1558 2EC2 A9 80			lda #$80
  1559 2EC4 85 8D			sta CIO.RGET.BUFFER+1
  1560 2EC6 20 65 2B			jsr CIO.RGET
  1561 2EC9 E8				inx
  1562 2ECA AD 0D 2C			lda CIO.RGET.RESULT
  1563 2ECD 85 88			sta @move.src
  1564 2ECF AD 0E 2C			lda CIO.RGET.RESULT+1
  1565 2ED2 85 89			sta @move.src+1
  1566 2ED4 AC 35 3D 84 82 AC + 	mwy REC :bp2
  1567 2EDE A0 00			ldy #$00
  1568 2EE0 B1 88 91 82 C8 D0 + 	mva:rne (@move.src),y (:bp2),y+
  1569 2EE7 CA				dex
  1570
  1571 				; optimize OK (heatmap.pas), line = 127
  1572
  1573 2EE8 AD D8 42			lda adr.REC+$01
  1574 2EEB C9 20			cmp #$20
  1575 2EED D0 0F			jne l_0613
  1576 					@printSTRING REC
  1576 				 LDY REC+1\ LDA REC\ JSR @PRINTSTRING
  1576 2EEF AC 36 3D		 LDY REC+1
  1576 2EF2 AD 35 3D		 LDA REC
  1576 2EF5 20 2C 29		 JSR @PRINTSTRING
  1577 2EF8 20 1E 29			@printEOL
  1578 2EFB 4C 03 2F			jmp l_0623
  1579 2EFE			l_0613
  1580 2EFE A9 00			lda #$00
  1581 2F00 8D AD 62			sta ISANOTHER
  1582 2F03			l_0623
  1583 2F03			l_05FA
  1584
  1585 				; optimize OK (heatmap.pas), line = 125
  1586
  1587 2F03 AD AD 62			lda ISANOTHER
  1588 2F06 D0 B1			jne l_05FB
  1589
  1590 				; optimize OK (heatmap.pas), line = 130
  1591
  1592 2F08 AD D7 43			lda FREECHANNEL
  1593 2F0B 20 4A 2B			jsr CIO.CLS
  1594
  1595 				; optimize FAIL ('@print', heatmap.pas), line = 131
  1596
  1597 2F0E 20 1E 29			@printEOL
  1598
  1599 				; optimize FAIL ('CLEARKEYS', heatmap.pas), line = 133
  1600
  1601 2F11 20 03 2E			jsr CLEARKEYS
  1602 2F14 4C 1C 2F			jmp l_063B
  1603 2F17			l_05E9
  1604
  1605 				; optimize OK (heatmap.pas), line = 137
  1606
  1607 2F17 A9 01			lda #$01
  1608 2F19 8D AE 62			sta SUCCESS
  1609 2F1C			l_063B
  1610 2F1C			l_05B1
  1611
  1612 				; optimize OK (heatmap.pas), line = 79
  1613
  1614 2F1C AD AE 62			lda SUCCESS
  1615 2F1F D0 03 4C 19 2E		jeq l_05B2
  1616
  1617 				; optimize OK (heatmap.pas), line = 145
  1618
  1619 2F24 AD 00 90			lda $9000
  1620 2F27 C9 44			cmp #$44
  1621 2F29 F0 15			jeq l_0664
  1622 2F2B AD 01 90			lda $9001
  1623 2F2E C9 3A			cmp #$3A
  1624 2F30 F0 0E			jeq l_0664
  1625 2F32 A0 FD			ldy #256-3
  1626 2F34 B9 C7 1F 99 8F 61 + 	mva:rne CODEORIGIN+$00C4+3-256,y adr.PATH+3-256,y+
  1627 2F3D 4C 45 2F			jmp l_066E
  1628 2F40			l_0664
  1629 2F40 A9 00 8D 8C 62		mva #$00 adr.PATH
  1630 2F45			l_066E
  1631
  1632 				; optimize OK (heatmap.pas), line = 153
  1633
  1634 2F45 A9 00			lda #$00
  1635 2F47 8D 8B 62			sta CNT
  1636
  1637 				; --- WhileProlog
  1638 2F4A 4C 89 2F			jmp l_0674
  1639 2F4D			l_0675
  1640
  1641 				; optimize OK (heatmap.pas), line = 158
  1642
  1643 2F4D AC 8B 62			ldy CNT
  1644 2F50 B9 00 90			lda $9000,y
  1645 2F53 8D 5E 3D			sta SYSTEM.CONCAT_03DF.B
  1646 2F56 AD B5 2F			lda PATH
  1647 2F59 8D 5C 3D			sta SYSTEM.CONCAT_03DF.A
  1648 2F5C AD B6 2F			lda PATH+1
  1649 2F5F 8D 5D 3D			sta SYSTEM.CONCAT_03DF.A+1
  1650 2F62 20 AA 2A			jsr SYSTEM.CONCAT_03DF
  1651 2F65 E8				inx
  1652 2F66 AD DE 2A			lda SYSTEM.CONCAT_03DF.RESULT
  1653 2F69 85 88			sta @move.src
  1654 2F6B AD DF 2A			lda SYSTEM.CONCAT_03DF.RESULT+1
  1655 2F6E 85 89			sta @move.src+1
  1656 					@moveSTRING PATH #33
  1656 				 MWA PATH @MOVE.DST\ MWA #33 @MOVE.CNT\ JSR @MOVESTRING
  1656 2F70 AD B5 2F 85 8C AD +  MWA PATH @MOVE.DST
  1656 2F7A A9 21 85 84 A9 00 +  MWA #33 @MOVE.CNT
  1656 2F82 20 F4 25		 JSR @MOVESTRING
  1657 2F85 CA				dex
  1658
  1659 				; optimize FAIL (0, heatmap.pas), line = 159
  1660
  1661 2F86 EE 8B 62			inc CNT
  1662 2F89			l_0674
  1663
  1664 				; optimize OK (heatmap.pas), line = 157
  1665
  1666 2F89 AC 8B 62			ldy CNT
  1667 2F8C B9 00 90			lda $9000,y
  1668 2F8F C9 9B			cmp #$9B
  1669 2F91 D0 BA			jne l_0675
  1670
  1671 				; optimize OK (heatmap.pas), line = 162
  1672
  1673 2F93 AD B5 2F			lda PATH
  1674 2F96 85 88			sta @move.src
  1675 2F98 AD B6 2F			lda PATH+1
  1676 2F9B 85 89			sta @move.src+1
  1677 					@moveSTRING RESULT #33
  1677 				 MWA RESULT @MOVE.DST\ MWA #33 @MOVE.CNT\ JSR @MOVESTRING
  1677 2F9D AD B3 2F 85 8C AD +  MWA RESULT @MOVE.DST
  1677 2FA7 A9 21 85 84 A9 00 +  MWA #33 @MOVE.CNT
  1677 2FAF 20 F4 25		 JSR @MOVESTRING
  1678 2FB2			@exit
  1679
  1680 				; ------------------------------------------------------------
  1681
  1682 = 6269			MAXCHARS	= DATAORIGIN+$2521
  1683 = 626A			adr.RESULT	= [DATAORIGIN+$2522] .array [33]
  1684 2FB2			.var RESULT	= adr.RESULT .word
  1685 = 628B			CNT	= DATAORIGIN+$2543
  1686 = 628C			adr.PATH	= [DATAORIGIN+$2544] .array [33]
  1687 2FB2			.var PATH	= adr.PATH .word
  1688 = 62AD			ISANOTHER	= DATAORIGIN+$2565
  1689 = 62AE			SUCCESS	= DATAORIGIN+$2566
  1690
  1691 = 6269			@VarData	= MAXCHARS
  1692 = 0046			@VarDataSize	= 70
  1693
  1694 2FB2 60				rts						; ret
  1695 = 2FB3 6A 62		RESULT
  1695 = 2FB5 8C 62		PATH
  1695 				.endl
  1696
  1697 2FB7			.local	OPENFILE					; PROCEDURE
  1698
  1699 				; optimize FAIL ('CIO.FINDFIRSTFREECHANNEL', heatmap.pas), line = 176
  1700
  1701 2FB7 20 39 2C			jsr CIO.FINDFIRSTFREECHANNEL
  1702 2FBA AD AA 3E			lda CIO.FINDFIRSTFREECHANNEL.RESULT
  1703 2FBD 8D D7 43			sta FREECHANNEL
  1704
  1705 				; optimize OK (heatmap.pas), line = 180
  1706
  1707 2FC0 C9 A1			cmp #$A1
  1708 2FC2 D0 0F			jne l_06B1
  1709
  1710 				; optimize FAIL ('@print', heatmap.pas), line = 181
  1711
  1712 					@printSTRING #CODEORIGIN+$00C8
  1712 				 LDY> CODEORIGIN+$00C8\ LDA< CODEORIGIN+$00C8\ JSR @PRINTSTRING
  1712 2FC4 A0 20		 LDY> CODEORIGIN+$00C8
  1712 2FC6 A9 C8		 LDA< CODEORIGIN+$00C8
  1712 2FC8 20 2C 29		 JSR @PRINTSTRING
  1713 2FCB 20 1E 29			@printEOL
  1714 2FCE A9 00			lda #$00
  1715 2FD0 4C 1F 3D			jmp @halt
  1716 2FD3			l_06B1
  1717
  1718 				; optimize OK (heatmap.pas), line = 187
  1719
  1720 2FD3 AD D7 43			lda FREECHANNEL
  1721 2FD6 4A				lsr @
  1722 2FD7 4A				lsr @
  1723 2FD8 4A				lsr @
  1724 2FD9 4A				lsr @
  1725 2FDA 8D D7 43			sta FREECHANNEL
  1726
  1727 				; optimize OK (heatmap.pas), line = 191
  1728
  1729 2FDD A9 00			lda #$00
  1730 2FDF 8D AF 62			sta SUCCESS
  1731
  1732 				; optimize FAIL ('CLEARKEYS', heatmap.pas), line = 193
  1733
  1734 2FE2 20 03 2E			jsr CLEARKEYS
  1735
  1736 				; --- WhileProlog
  1737 2FE5 4C 4F 30			jmp l_06CA
  1738 2FE8			l_06CB
  1739
  1740 				; optimize OK (heatmap.pas), line = 197
  1741
  1742 2FE8 A9 10			lda #$10
  1743 2FEA 20 0E 2E			jsr GETSTRING
  1744 2FED E8				inx
  1745 2FEE AD B3 2F			lda GETSTRING.RESULT
  1746 2FF1 85 88			sta @move.src
  1747 2FF3 AD B4 2F			lda GETSTRING.RESULT+1
  1748 2FF6 85 89			sta @move.src+1
  1749 					@moveSTRING FILENAME #17
  1749 				 MWA FILENAME @MOVE.DST\ MWA #17 @MOVE.CNT\ JSR @MOVESTRING
  1749 2FF8 AD 37 3D 85 8C AD +  MWA FILENAME @MOVE.DST
  1749 3002 A9 11 85 84 A9 00 +  MWA #17 @MOVE.CNT
  1749 300A 20 F4 25		 JSR @MOVESTRING
  1750 300D CA				dex
  1751
  1752 				; optimize OK (heatmap.pas), line = 201
  1753
  1754 300E AD D7 43			lda FREECHANNEL
  1755 3011 8D 61 3E			sta CIO.OPN.CHN
  1756 3014 A9 04			lda #$04
  1757 3016 8D 62 3E			sta CIO.OPN.AX1
  1758 3019 A9 00			lda #$00
  1759 301B 8D 63 3E			sta CIO.OPN.AX2
  1760 301E AD 37 3D			lda FILENAME
  1761 3021 8D 64 3E			sta CIO.OPN.DEVICE
  1762 3024 AD 38 3D			lda FILENAME+1
  1763 3027 8D 65 3E			sta CIO.OPN.DEVICE+1
  1764 302A 20 12 2B			jsr CIO.OPN
  1765
  1766 				; optimize OK (heatmap.pas), line = 205
  1767
  1768 302D AD 4F 3D			lda SYSTEM.IORESULT
  1769 3030 C9 01			cmp #$01
  1770 3032 F0 16			jeq l_06E7
  1771
  1772 				; optimize FAIL ('@print', heatmap.pas), line = 206
  1773
  1774 					@printSTRING #CODEORIGIN+$00EC
  1774 				 LDY> CODEORIGIN+$00EC\ LDA< CODEORIGIN+$00EC\ JSR @PRINTSTRING
  1774 3034 A0 20		 LDY> CODEORIGIN+$00EC
  1774 3036 A9 EC		 LDA< CODEORIGIN+$00EC
  1774 3038 20 2C 29		 JSR @PRINTSTRING
  1775 303B 20 1E 29			@printEOL
  1776
  1777 				; optimize FAIL ('@print', heatmap.pas), line = 207
  1778
  1779 303E 20 1E 29			@printEOL
  1780
  1781 				; optimize OK (heatmap.pas), line = 208
  1782
  1783 3041 AD D7 43			lda FREECHANNEL
  1784 3044 20 4A 2B			jsr CIO.CLS
  1785 3047 4C 4F 30			jmp l_06F8
  1786 304A			l_06E7
  1787
  1788 				; optimize OK (heatmap.pas), line = 210
  1789
  1790 304A A9 01			lda #$01
  1791 304C 8D AF 62			sta SUCCESS
  1792 304F			l_06F8
  1793 304F			l_06CA
  1794
  1795 				; optimize OK (heatmap.pas), line = 195
  1796
  1797 304F AD AF 62			lda SUCCESS
  1798 3052 F0 94			jeq l_06CB
  1799
  1800 				; optimize OK (heatmap.pas), line = 218
  1801
  1802 3054 AD D7 43			lda FREECHANNEL
  1803 3057 85 88			sta CIO.RGET.CHN
  1804 3059 A9 00			lda #$00
  1805 305B 85 8C			sta CIO.RGET.BUFFER
  1806 305D A9 80			lda #$80
  1807 305F 85 8D			sta CIO.RGET.BUFFER+1
  1808 3061 20 65 2B			jsr CIO.RGET
  1809 3064 E8				inx
  1810 3065 AD 0D 2C			lda CIO.RGET.RESULT
  1811 3068 85 88			sta @move.src
  1812 306A AD 0E 2C			lda CIO.RGET.RESULT+1
  1813 306D 85 89			sta @move.src+1
  1814 306F AC 35 3D 84 82 AC + 	mwy REC :bp2
  1815 3079 A0 00			ldy #$00
  1816 307B B1 88 91 82 C8 D0 + 	mva:rne (@move.src),y (:bp2),y+
  1817
  1818 				; optimize FAIL ('cmpSTRING', heatmap.pas), line = 220
  1819
  1820 3082 AD 35 3D 95 94		mva REC :STACKORIGIN,x
  1821 3087 AD 36 3D 95 A4		mva REC+1 :STACKORIGIN+STACKWIDTH,x
  1822 308C E8				inx
  1823 308D A9 FD 95 94			mva #$FD :STACKORIGIN,x
  1824 3091 A9 20 95 A4			mva #$20 :STACKORIGIN+STACKWIDTH,x
  1825 3095 A0 01			ldy #1
  1826 3097 20 22 25			jsr cmpSTRING
  1827 309A D0 01			bne @+
  1828 309C 88				dey
  1829 				@
  1830 309D CA				dex
  1831 309E CA				dex
  1832 309F 98				tya
  1833 30A0 F0 15			jeq l_071B
  1834
  1835 				; optimize FAIL ('@print', heatmap.pas), line = 221
  1836
  1837 					@printSTRING #CODEORIGIN+$0104
  1837 				 LDY> CODEORIGIN+$0104\ LDA< CODEORIGIN+$0104\ JSR @PRINTSTRING
  1837 30A2 A0 21		 LDY> CODEORIGIN+$0104
  1837 30A4 A9 04		 LDA< CODEORIGIN+$0104
  1837 30A6 20 2C 29		 JSR @PRINTSTRING
  1838 30A9 20 1E 29			@printEOL
  1839
  1840 				; optimize OK (heatmap.pas), line = 222
  1841
  1842 30AC AD D7 43			lda FREECHANNEL
  1843 30AF 20 4A 2B			jsr CIO.CLS
  1844 30B2 A9 00			lda #$00
  1845 30B4 4C 1F 3D			jmp @halt
  1846 30B7			l_071B
  1847
  1848 				; ------------------------------------------------------------
  1849
  1850 = 62AF			SUCCESS	= DATAORIGIN+$2567
  1851
  1852 = 62AF			@VarData	= SUCCESS
  1853 = 0001			@VarDataSize	= 1
  1854
  1855 30B7			@exit
  1856 					.ifdef @new
  1857 					lda <@VarData
  1858 					sta :ztmp
  1859 					lda >@VarData
  1860 					ldy #@VarDataSize-1
  1861 					jmp @FreeMem
  1862 					els
  1863 30B7 60				rts						; ret
  1864 					eif
  1865 				.endl
  1866
  1867 30B8			.local	CONVERTVALUE					; FUNCTION
  1868
  1869 				; ------------------------------------------------------------
  1870
  1871 				; Generate Assignment for WORD / SMALLINT / SHORTREAL / POINTER
  1872 				; as Pointer
  1873 30B8 B5 94			lda :STACKORIGIN,x
  1874 30BA 85 82			sta :bp2
  1875 30BC B5 A4			lda :STACKORIGIN+STACKWIDTH,x
  1876 30BE 85 83			sta :bp2+1
  1877 30C0 A0 20			ldy #$20
  1878 30C2 B1 82 99 B0 62 88 + 	mva:rpl (:bp2),y adr.REC,y-
  1879 30CA A9 B0 8D 4F 31 A9 + 	mwa #adr.REC REC
  1880 30D4 CA				dex
  1881 30D5			@main
  1882
  1883 				; optimize FAIL ('STRINGUTILS.STRPOS_0497', heatmap.pas), line = 238
  1884
  1885 30D5 E8				inx
  1886 30D6 AD 4F 31 95 94		mva REC :STACKORIGIN,x
  1887 30DB AD 50 31 95 A4		mva REC+1 :STACKORIGIN+STACKWIDTH,x
  1888 30E0 E8				inx
  1889 30E1 A9 2C 95 94			mva #$2C :STACKORIGIN,x
  1890 30E5 20 05 2D			jsr STRINGUTILS.STRPOS_0497
  1891 30E8 AD AF 42			lda STRINGUTILS.STRPOS_0497.RESULT
  1892 30EB 8D F1 47			sta COMMAPOS
  1893
  1894 				; optimize FAIL ('STRINGUTILS.STRRIGHT', heatmap.pas), line = 239
  1895
  1896 30EE E8				inx
  1897 30EF AD B0 62			lda adr.REC
  1898 30F2 95 94			sta :STACKORIGIN,x
  1899 30F4 E8				inx
  1900 30F5 AD F1 47 95 94		mva COMMAPOS :STACKORIGIN,x
  1901 30FA 20 25 24			jsr subAL_CL
  1902 30FD AD 4F 31 95 94		mva REC :STACKORIGIN,x
  1903 3102 AD 50 31 95 A4		mva REC+1 :STACKORIGIN+STACKWIDTH,x
  1904 3107 20 55 2C			jsr STRINGUTILS.STRRIGHT
  1905 310A E8				inx
  1906 310B AD 01 2D			lda STRINGUTILS.STRRIGHT.RESULT
  1907 310E 85 88			sta @move.src
  1908 3110 AD 02 2D			lda STRINGUTILS.STRRIGHT.RESULT+1
  1909 3113 85 89			sta @move.src+1
  1910 					@moveSTRING VALUESTRING #11
  1910 				 MWA VALUESTRING @MOVE.DST\ MWA #11 @MOVE.CNT\ JSR @MOVESTRING
  1910 3115 AD 41 3D 85 8C AD +  MWA VALUESTRING @MOVE.DST
  1910 311F A9 0B 85 84 A9 00 +  MWA #11 @MOVE.CNT
  1910 3127 20 F4 25		 JSR @MOVESTRING
  1911 312A CA				dex
  1912
  1913 				; optimize OK (heatmap.pas), line = 240
  1914
  1915 312B AD 41 3D			lda VALUESTRING
  1916 312E 8D 54 3D			sta SYSTEM.VAL_03A7.S
  1917 3131 AD 42 3D			lda VALUESTRING+1
  1918 3134 8D 55 3D			sta SYSTEM.VAL_03A7.S+1
  1919 3137 A9 D1			lda <RESULT
  1920 3139 8D 56 3D			sta SYSTEM.VAL_03A7.V
  1921 313C A9 62			lda >RESULT
  1922 313E 8D 57 3D			sta SYSTEM.VAL_03A7.V+1
  1923 3141 A9 D6			lda <CODE
  1924 3143 8D 58 3D			sta SYSTEM.VAL_03A7.CODE
  1925 3146 A9 42			lda >CODE
  1926 3148 8D 59 3D			sta SYSTEM.VAL_03A7.CODE+1
  1927 314B 20 4E 2A			jsr SYSTEM.VAL_03A7
  1928 314E			@exit
  1929
  1930 				; ------------------------------------------------------------
  1931
  1932 = 62B0			adr.REC	= [DATAORIGIN+$2568] .array [33]
  1933 314E			.var REC	= adr.REC .word
  1934 = 62D1			RESULT	= DATAORIGIN+$2589
  1935
  1936 = 314F			@VarData	= REC
  1937 = 0025			@VarDataSize	= 37
  1938
  1939 314E 60				rts						; ret
  1940 = 314F B0 62		REC
  1940 				.endl
  1941
  1942 3151			.local	PARSETABLE					; PROCEDURE
  1943
  1944 				; optimize FAIL ('@print', heatmap.pas), line = 251
  1945
  1946 3151 20 1E 29			@printEOL
  1947
  1948 				; optimize FAIL ('@print', heatmap.pas), line = 252
  1949
  1950 					@printSTRING #CODEORIGIN+$0126
  1950 				 LDY> CODEORIGIN+$0126\ LDA< CODEORIGIN+$0126\ JSR @PRINTSTRING
  1950 3154 A0 21		 LDY> CODEORIGIN+$0126
  1950 3156 A9 26		 LDA< CODEORIGIN+$0126
  1950 3158 20 2C 29		 JSR @PRINTSTRING
  1951 315B 20 1E 29			@printEOL
  1952
  1953 				; optimize FAIL ('@print', heatmap.pas), line = 253
  1954
  1955 					@printSTRING #CODEORIGIN+$0135
  1955 				 LDY> CODEORIGIN+$0135\ LDA< CODEORIGIN+$0135\ JSR @PRINTSTRING
  1955 315E A0 21		 LDY> CODEORIGIN+$0135
  1955 3160 A9 35		 LDA< CODEORIGIN+$0135
  1955 3162 20 2C 29		 JSR @PRINTSTRING
  1956 3165 20 1E 29			@printEOL
  1957
  1958 				; optimize OK (heatmap.pas), line = 255
  1959
  1960 3168 AD D7 43			lda FREECHANNEL
  1961 316B 85 88			sta CIO.RSKIP.CHN
  1962 316D A9 00			lda #$00
  1963 316F 85 8C			sta CIO.RSKIP.BUFFER
  1964 3171 A9 80			lda #$80
  1965 3173 85 8D			sta CIO.RSKIP.BUFFER+1
  1966 3175 20 11 2C			jsr CIO.RSKIP
  1967
  1968 				; optimize OK (heatmap.pas), line = 256
  1969
  1970 3178 AD D7 43			lda FREECHANNEL
  1971 317B 85 88			sta CIO.RGET.CHN
  1972 317D A9 00			lda #$00
  1973 317F 85 8C			sta CIO.RGET.BUFFER
  1974 3181 A9 80			lda #$80
  1975 3183 85 8D			sta CIO.RGET.BUFFER+1
  1976 3185 20 65 2B			jsr CIO.RGET
  1977 3188 E8				inx
  1978 3189 AD 0D 2C			lda CIO.RGET.RESULT
  1979 318C 85 88			sta @move.src
  1980 318E AD 0E 2C			lda CIO.RGET.RESULT+1
  1981 3191 85 89			sta @move.src+1
  1982 3193 AC 39 3D 84 82 AC + 	mwy TABLECOMMENT :bp2
  1983 319D A0 00			ldy #$00
  1984 319F B1 88 91 82 C8 D0 + 	mva:rne (@move.src),y (:bp2),y+
  1985 31A6 CA				dex
  1986
  1987 				; optimize OK (heatmap.pas), line = 260
  1988
  1989 31A7 AD D7 43			lda FREECHANNEL
  1990 31AA 85 88			sta CIO.RGET.CHN
  1991 31AC A9 00			lda #$00
  1992 31AE 85 8C			sta CIO.RGET.BUFFER
  1993 31B0 A9 80			lda #$80
  1994 31B2 85 8D			sta CIO.RGET.BUFFER+1
  1995 31B4 20 65 2B			jsr CIO.RGET
  1996 31B7 E8				inx
  1997 31B8 AD 0D 2C			lda CIO.RGET.RESULT
  1998 31BB 85 88			sta @move.src
  1999 31BD AD 0E 2C			lda CIO.RGET.RESULT+1
  2000 31C0 85 89			sta @move.src+1
  2001 31C2 AC 35 3D 84 82 AC + 	mwy REC :bp2
  2002 31CC A0 00			ldy #$00
  2003 31CE B1 88 91 82 C8 D0 + 	mva:rne (@move.src),y (:bp2),y+
  2004
  2005 				; optimize FAIL ('cmpSTRING', heatmap.pas), line = 261
  2006
  2007 31D5 AD 35 3D 95 94		mva REC :STACKORIGIN,x
  2008 31DA AD 36 3D 95 A4		mva REC+1 :STACKORIGIN+STACKWIDTH,x
  2009 31DF E8				inx
  2010 31E0 A9 54 95 94			mva #$54 :STACKORIGIN,x
  2011 31E4 A9 21 95 A4			mva #$21 :STACKORIGIN+STACKWIDTH,x
  2012 31E8 A0 01			ldy #1
  2013 31EA 20 22 25			jsr cmpSTRING
  2014 31ED D0 01			bne @+
  2015 31EF 88				dey
  2016 				@
  2017 31F0 CA				dex
  2018 31F1 CA				dex
  2019 31F2 98				tya
  2020 31F3 F0 15			jeq l_076D
  2021
  2022 				; optimize FAIL ('@print', heatmap.pas), line = 262
  2023
  2024 					@printSTRING #CODEORIGIN+$015D
  2024 				 LDY> CODEORIGIN+$015D\ LDA< CODEORIGIN+$015D\ JSR @PRINTSTRING
  2024 31F5 A0 21		 LDY> CODEORIGIN+$015D
  2024 31F7 A9 5D		 LDA< CODEORIGIN+$015D
  2024 31F9 20 2C 29		 JSR @PRINTSTRING
  2025 31FC 20 1E 29			@printEOL
  2026
  2027 				; optimize OK (heatmap.pas), line = 263
  2028
  2029 31FF AD D7 43			lda FREECHANNEL
  2030 3202 20 4A 2B			jsr CIO.CLS
  2031 3205 A9 00			lda #$00
  2032 3207 4C 1F 3D			jmp @halt
  2033 320A			l_076D
  2034
  2035 				; optimize OK (heatmap.pas), line = 267
  2036
  2037 320A AD D7 43			lda FREECHANNEL
  2038 320D 85 88			sta CIO.RGET.CHN
  2039 320F A9 00			lda #$00
  2040 3211 85 8C			sta CIO.RGET.BUFFER
  2041 3213 A9 80			lda #$80
  2042 3215 85 8D			sta CIO.RGET.BUFFER+1
  2043 3217 20 65 2B			jsr CIO.RGET
  2044 321A E8				inx
  2045 321B AD 0D 2C			lda CIO.RGET.RESULT
  2046 321E 85 88			sta @move.src
  2047 3220 AD 0E 2C			lda CIO.RGET.RESULT+1
  2048 3223 85 89			sta @move.src+1
  2049 3225 AC 35 3D 84 82 AC + 	mwy REC :bp2
  2050 322F A0 00			ldy #$00
  2051 3231 B1 88 91 82 C8 D0 + 	mva:rne (@move.src),y (:bp2),y+
  2052
  2053 				; optimize FAIL ('CONVERTVALUE', heatmap.pas), line = 269
  2054
  2055 3238 AD 35 3D 95 94		mva REC :STACKORIGIN,x
  2056 323D AD 36 3D 95 A4		mva REC+1 :STACKORIGIN+STACKWIDTH,x
  2057 3242 20 B8 30			jsr CONVERTVALUE
  2058 3245 AD D1 62			lda CONVERTVALUE.RESULT
  2059 3248 8D E9 47			sta NUMROWS
  2060 324B AD D2 62			lda CONVERTVALUE.RESULT+1
  2061 324E 8D EA 47			sta NUMROWS+1
  2062 3251 AD D3 62			lda CONVERTVALUE.RESULT+2
  2063 3254 8D EB 47			sta NUMROWS+2
  2064 3257 AD D4 62			lda CONVERTVALUE.RESULT+3
  2065 325A 8D EC 47			sta NUMROWS+3
  2066
  2067 				; optimize OK (heatmap.pas), line = 271
  2068
  2069 325D AD D7 43			lda FREECHANNEL
  2070 3260 85 88			sta CIO.RGET.CHN
  2071 3262 A9 00			lda #$00
  2072 3264 85 8C			sta CIO.RGET.BUFFER
  2073 3266 A9 80			lda #$80
  2074 3268 85 8D			sta CIO.RGET.BUFFER+1
  2075 326A 20 65 2B			jsr CIO.RGET
  2076 326D E8				inx
  2077 326E AD 0D 2C			lda CIO.RGET.RESULT
  2078 3271 85 88			sta @move.src
  2079 3273 AD 0E 2C			lda CIO.RGET.RESULT+1
  2080 3276 85 89			sta @move.src+1
  2081 3278 AC 3D 3D 84 82 AC + 	mwy ROWCOMMENT :bp2
  2082 3282 A0 00			ldy #$00
  2083 3284 B1 88 91 82 C8 D0 + 	mva:rne (@move.src),y (:bp2),y+
  2084 328B CA				dex
  2085
  2086 				; optimize FAIL ('@print', heatmap.pas), line = 273
  2087
  2088 					@printSTRING #CODEORIGIN+$017E
  2088 				 LDY> CODEORIGIN+$017E\ LDA< CODEORIGIN+$017E\ JSR @PRINTSTRING
  2088 328C A0 21		 LDY> CODEORIGIN+$017E
  2088 328E A9 7E		 LDA< CODEORIGIN+$017E
  2088 3290 20 2C 29		 JSR @PRINTSTRING
  2089 3293 E8				inx
  2090 3294 AD E9 47 95 94		mva NUMROWS :STACKORIGIN,x
  2091 3299 AD EA 47 95 A4		mva NUMROWS+1 :STACKORIGIN+STACKWIDTH,x
  2092 329E AD EB 47 95 B4		mva NUMROWS+2 :STACKORIGIN+STACKWIDTH*2,x
  2093 32A3 AD EC 47 95 C4		mva NUMROWS+3 :STACKORIGIN+STACKWIDTH*3,x
  2094 32A8 20 5B 29			jsr @printINT
  2095 32AB CA				dex
  2096 32AC 20 1E 29			@printEOL
  2097
  2098 				; optimize OK (heatmap.pas), line = 275
  2099
  2100 32AF				.LOCAL
  2101 32AF AD EC 47			lda NUMROWS+3
  2102 32B2 38 E9 00			sub #$00
  2103 32B5 D0 1F			bne L4
  2104 32B7 AD EB 47			lda NUMROWS+2
  2105 32BA C9 00			cmp #$00
  2106 32BC D0 0C			bne L1
  2107 32BE AD EA 47			lda NUMROWS+1
  2108 32C1 C9 00			cmp #$00
  2109 32C3 D0 05			bne L1
  2110 32C5 AD E9 47			lda NUMROWS
  2111 32C8 C9 28			cmp #$28
  2112 32CA F0 10		L1	beq L5
  2113 32CC B0 04			bcs L3
  2114 32CE A9 FF			lda #$FF
  2115 32D0 D0 0A			bne L5
  2116 32D2 A9 01		L3	lda #$01
  2117 32D4 D0 06			bne L5
  2118 32D6 50 04		L4	bvc L5
  2119 32D8 49 FF			eor #$FF
  2120 32DA 09 01			ora #$01
  2121 32DC			L5
  2122 					.ENDL
  2123 32DC 30 17			jmi l_07A2
  2124 32DE F0 15			jeq l_07A2
  2125
  2126 				; optimize FAIL ('@print', heatmap.pas), line = 276
  2127
  2128 					@printSTRING #CODEORIGIN+$0190
  2128 				 LDY> CODEORIGIN+$0190\ LDA< CODEORIGIN+$0190\ JSR @PRINTSTRING
  2128 32E0 A0 21		 LDY> CODEORIGIN+$0190
  2128 32E2 A9 90		 LDA< CODEORIGIN+$0190
  2128 32E4 20 2C 29		 JSR @PRINTSTRING
  2129 32E7 20 1E 29			@printEOL
  2130
  2131 				; optimize OK (heatmap.pas), line = 277
  2132
  2133 32EA AD D7 43			lda FREECHANNEL
  2134 32ED 20 4A 2B			jsr CIO.CLS
  2135 32F0 A9 00			lda #$00
  2136 32F2 4C 1F 3D			jmp @halt
  2137 32F5			l_07A2
  2138
  2139 				; optimize OK (heatmap.pas), line = 283
  2140
  2141 32F5 AD D7 43			lda FREECHANNEL
  2142 32F8 85 88			sta CIO.RGET.CHN
  2143 32FA A9 00			lda #$00
  2144 32FC 85 8C			sta CIO.RGET.BUFFER
  2145 32FE A9 80			lda #$80
  2146 3300 85 8D			sta CIO.RGET.BUFFER+1
  2147 3302 20 65 2B			jsr CIO.RGET
  2148 3305 E8				inx
  2149 3306 AD 0D 2C			lda CIO.RGET.RESULT
  2150 3309 85 88			sta @move.src
  2151 330B AD 0E 2C			lda CIO.RGET.RESULT+1
  2152 330E 85 89			sta @move.src+1
  2153 3310 AC 35 3D 84 82 AC + 	mwy REC :bp2
  2154 331A A0 00			ldy #$00
  2155 331C B1 88 91 82 C8 D0 + 	mva:rne (@move.src),y (:bp2),y+
  2156
  2157 				; optimize FAIL ('cmpSTRING', heatmap.pas), line = 284
  2158
  2159 3323 AD 35 3D 95 94		mva REC :STACKORIGIN,x
  2160 3328 AD 36 3D 95 A4		mva REC+1 :STACKORIGIN+STACKWIDTH,x
  2161 332D E8				inx
  2162 332E A9 B3 95 94			mva #$B3 :STACKORIGIN,x
  2163 3332 A9 21 95 A4			mva #$21 :STACKORIGIN+STACKWIDTH,x
  2164 3336 A0 01			ldy #1
  2165 3338 20 22 25			jsr cmpSTRING
  2166 333B D0 01			bne @+
  2167 333D 88				dey
  2168 				@
  2169 333E CA				dex
  2170 333F CA				dex
  2171 3340 98				tya
  2172 3341 F0 15			jeq l_07C4
  2173
  2174 				; optimize FAIL ('@print', heatmap.pas), line = 285
  2175
  2176 					@printSTRING #CODEORIGIN+$01BB
  2176 				 LDY> CODEORIGIN+$01BB\ LDA< CODEORIGIN+$01BB\ JSR @PRINTSTRING
  2176 3343 A0 21		 LDY> CODEORIGIN+$01BB
  2176 3345 A9 BB		 LDA< CODEORIGIN+$01BB
  2176 3347 20 2C 29		 JSR @PRINTSTRING
  2177 334A 20 1E 29			@printEOL
  2178
  2179 				; optimize OK (heatmap.pas), line = 286
  2180
  2181 334D AD D7 43			lda FREECHANNEL
  2182 3350 20 4A 2B			jsr CIO.CLS
  2183 3353 A9 00			lda #$00
  2184 3355 4C 1F 3D			jmp @halt
  2185 3358			l_07C4
  2186
  2187 				; optimize OK (heatmap.pas), line = 290
  2188
  2189 3358 AD D7 43			lda FREECHANNEL
  2190 335B 85 88			sta CIO.RGET.CHN
  2191 335D A9 00			lda #$00
  2192 335F 85 8C			sta CIO.RGET.BUFFER
  2193 3361 A9 80			lda #$80
  2194 3363 85 8D			sta CIO.RGET.BUFFER+1
  2195 3365 20 65 2B			jsr CIO.RGET
  2196 3368 E8				inx
  2197 3369 AD 0D 2C			lda CIO.RGET.RESULT
  2198 336C 85 88			sta @move.src
  2199 336E AD 0E 2C			lda CIO.RGET.RESULT+1
  2200 3371 85 89			sta @move.src+1
  2201 3373 AC 35 3D 84 82 AC + 	mwy REC :bp2
  2202 337D A0 00			ldy #$00
  2203 337F B1 88 91 82 C8 D0 + 	mva:rne (@move.src),y (:bp2),y+
  2204
  2205 				; optimize FAIL ('CONVERTVALUE', heatmap.pas), line = 292
  2206
  2207 3386 AD 35 3D 95 94		mva REC :STACKORIGIN,x
  2208 338B AD 36 3D 95 A4		mva REC+1 :STACKORIGIN+STACKWIDTH,x
  2209 3390 20 B8 30			jsr CONVERTVALUE
  2210 3393 AD D1 62			lda CONVERTVALUE.RESULT
  2211 3396 8D ED 47			sta NUMCOLS
  2212 3399 AD D2 62			lda CONVERTVALUE.RESULT+1
  2213 339C 8D EE 47			sta NUMCOLS+1
  2214 339F AD D3 62			lda CONVERTVALUE.RESULT+2
  2215 33A2 8D EF 47			sta NUMCOLS+2
  2216 33A5 AD D4 62			lda CONVERTVALUE.RESULT+3
  2217 33A8 8D F0 47			sta NUMCOLS+3
  2218
  2219 				; optimize OK (heatmap.pas), line = 294
  2220
  2221 33AB AD D7 43			lda FREECHANNEL
  2222 33AE 85 88			sta CIO.RGET.CHN
  2223 33B0 A9 00			lda #$00
  2224 33B2 85 8C			sta CIO.RGET.BUFFER
  2225 33B4 A9 80			lda #$80
  2226 33B6 85 8D			sta CIO.RGET.BUFFER+1
  2227 33B8 20 65 2B			jsr CIO.RGET
  2228 33BB E8				inx
  2229 33BC AD 0D 2C			lda CIO.RGET.RESULT
  2230 33BF 85 88			sta @move.src
  2231 33C1 AD 0E 2C			lda CIO.RGET.RESULT+1
  2232 33C4 85 89			sta @move.src+1
  2233 33C6 AC 3B 3D 84 82 AC + 	mwy COLCOMMENT :bp2
  2234 33D0 A0 00			ldy #$00
  2235 33D2 B1 88 91 82 C8 D0 + 	mva:rne (@move.src),y (:bp2),y+
  2236 33D9 CA				dex
  2237
  2238 				; optimize FAIL ('@print', heatmap.pas), line = 296
  2239
  2240 					@printSTRING #CODEORIGIN+$01D9
  2240 				 LDY> CODEORIGIN+$01D9\ LDA< CODEORIGIN+$01D9\ JSR @PRINTSTRING
  2240 33DA A0 21		 LDY> CODEORIGIN+$01D9
  2240 33DC A9 D9		 LDA< CODEORIGIN+$01D9
  2240 33DE 20 2C 29		 JSR @PRINTSTRING
  2241 33E1 E8				inx
  2242 33E2 AD ED 47 95 94		mva NUMCOLS :STACKORIGIN,x
  2243 33E7 AD EE 47 95 A4		mva NUMCOLS+1 :STACKORIGIN+STACKWIDTH,x
  2244 33EC AD EF 47 95 B4		mva NUMCOLS+2 :STACKORIGIN+STACKWIDTH*2,x
  2245 33F1 AD F0 47 95 C4		mva NUMCOLS+3 :STACKORIGIN+STACKWIDTH*3,x
  2246 33F6 20 5B 29			jsr @printINT
  2247 33F9 CA				dex
  2248 33FA 20 1E 29			@printEOL
  2249
  2250 				; optimize OK (heatmap.pas), line = 298
  2251
  2252 33FD				.LOCAL
  2253 33FD AD EC 47			lda NUMROWS+3
  2254 3400 38 E9 00			sub #$00
  2255 3403 D0 1F			bne L4
  2256 3405 AD EB 47			lda NUMROWS+2
  2257 3408 C9 00			cmp #$00
  2258 340A D0 0C			bne L1
  2259 340C AD EA 47			lda NUMROWS+1
  2260 340F C9 00			cmp #$00
  2261 3411 D0 05			bne L1
  2262 3413 AD E9 47			lda NUMROWS
  2263 3416 C9 28			cmp #$28
  2264 3418 F0 10		L1	beq L5
  2265 341A B0 04			bcs L3
  2266 341C A9 FF			lda #$FF
  2267 341E D0 0A			bne L5
  2268 3420 A9 01		L3	lda #$01
  2269 3422 D0 06			bne L5
  2270 3424 50 04		L4	bvc L5
  2271 3426 49 FF			eor #$FF
  2272 3428 09 01			ora #$01
  2273 342A			L5
  2274 					.ENDL
  2275 342A 30 17			jmi l_07F9
  2276 342C F0 15			jeq l_07F9
  2277
  2278 				; optimize FAIL ('@print', heatmap.pas), line = 299
  2279
  2280 					@printSTRING #CODEORIGIN+$0190
  2280 				 LDY> CODEORIGIN+$0190\ LDA< CODEORIGIN+$0190\ JSR @PRINTSTRING
  2280 342E A0 21		 LDY> CODEORIGIN+$0190
  2280 3430 A9 90		 LDA< CODEORIGIN+$0190
  2280 3432 20 2C 29		 JSR @PRINTSTRING
  2281 3435 20 1E 29			@printEOL
  2282
  2283 				; optimize OK (heatmap.pas), line = 300
  2284
  2285 3438 AD D7 43			lda FREECHANNEL
  2286 343B 20 4A 2B			jsr CIO.CLS
  2287 343E A9 00			lda #$00
  2288 3440 4C 1F 3D			jmp @halt
  2289 3443			l_07F9
  2290
  2291 				; optimize OK (heatmap.pas), line = 306
  2292
  2293 3443 AD D7 43			lda FREECHANNEL
  2294 3446 85 88			sta CIO.RGET.CHN
  2295 3448 A9 00			lda #$00
  2296 344A 85 8C			sta CIO.RGET.BUFFER
  2297 344C A9 80			lda #$80
  2298 344E 85 8D			sta CIO.RGET.BUFFER+1
  2299 3450 20 65 2B			jsr CIO.RGET
  2300 3453 E8				inx
  2301 3454 AD 0D 2C			lda CIO.RGET.RESULT
  2302 3457 85 88			sta @move.src
  2303 3459 AD 0E 2C			lda CIO.RGET.RESULT+1
  2304 345C 85 89			sta @move.src+1
  2305 345E AC 35 3D 84 82 AC + 	mwy REC :bp2
  2306 3468 A0 00			ldy #$00
  2307 346A B1 88 91 82 C8 D0 + 	mva:rne (@move.src),y (:bp2),y+
  2308
  2309 				; optimize FAIL ('cmpSTRING', heatmap.pas), line = 307
  2310
  2311 3471 AD 35 3D 95 94		mva REC :STACKORIGIN,x
  2312 3476 AD 36 3D 95 A4		mva REC+1 :STACKORIGIN+STACKWIDTH,x
  2313 347B E8				inx
  2314 347C A9 EE 95 94			mva #$EE :STACKORIGIN,x
  2315 3480 A9 21 95 A4			mva #$21 :STACKORIGIN+STACKWIDTH,x
  2316 3484 A0 01			ldy #1
  2317 3486 20 22 25			jsr cmpSTRING
  2318 3489 D0 01			bne @+
  2319 348B 88				dey
  2320 				@
  2321 348C CA				dex
  2322 348D CA				dex
  2323 348E 98				tya
  2324 348F F0 15			jeq l_081B
  2325
  2326 				; optimize FAIL ('@print', heatmap.pas), line = 308
  2327
  2328 					@printSTRING #CODEORIGIN+$01F4
  2328 				 LDY> CODEORIGIN+$01F4\ LDA< CODEORIGIN+$01F4\ JSR @PRINTSTRING
  2328 3491 A0 21		 LDY> CODEORIGIN+$01F4
  2328 3493 A9 F4		 LDA< CODEORIGIN+$01F4
  2328 3495 20 2C 29		 JSR @PRINTSTRING
  2329 3498 20 1E 29			@printEOL
  2330
  2331 				; optimize OK (heatmap.pas), line = 309
  2332
  2333 349B AD D7 43			lda FREECHANNEL
  2334 349E 20 4A 2B			jsr CIO.CLS
  2335 34A1 A9 00			lda #$00
  2336 34A3 4C 1F 3D			jmp @halt
  2337 34A6			l_081B
  2338
  2339 				; optimize FAIL ('@print', heatmap.pas), line = 313
  2340
  2341 					@printSTRING #CODEORIGIN+$0212
  2341 				 LDY> CODEORIGIN+$0212\ LDA< CODEORIGIN+$0212\ JSR @PRINTSTRING
  2341 34A6 A0 22		 LDY> CODEORIGIN+$0212
  2341 34A8 A9 12		 LDA< CODEORIGIN+$0212
  2341 34AA 20 2C 29		 JSR @PRINTSTRING
  2342 34AD 20 1E 29			@printEOL
  2343
  2344 				; optimize FAIL ('@print', heatmap.pas), line = 314
  2345
  2346 34B0 20 1E 29			@printEOL
  2347
  2348 				; optimize FAIL ('@print', heatmap.pas), line = 315
  2349
  2350 34B3 20 1E 29			@printEOL
  2351
  2352 				; optimize FAIL ('CRT.CURSOROFF', heatmap.pas), line = 317
  2353
  2354 34B6 20 E4 2A			jsr CRT.CURSOROFF
  2355
  2356 				; optimize OK (heatmap.pas), line = 319
  2357
  2358 34B9 AD D7 43			lda FREECHANNEL
  2359 34BC 85 88			sta CIO.RSKIP.CHN
  2360 34BE A9 00			lda #$00
  2361 34C0 85 8C			sta CIO.RSKIP.BUFFER
  2362 34C2 A9 80			lda #$80
  2363 34C4 85 8D			sta CIO.RSKIP.BUFFER+1
  2364 34C6 20 11 2C			jsr CIO.RSKIP
  2365
  2366 				; optimize OK (heatmap.pas), line = 320
  2367
  2368 34C9 AD D7 43			lda FREECHANNEL
  2369 34CC 85 88			sta CIO.RGET.CHN
  2370 34CE A9 00			lda #$00
  2371 34D0 85 8C			sta CIO.RGET.BUFFER
  2372 34D2 A9 80			lda #$80
  2373 34D4 85 8D			sta CIO.RGET.BUFFER+1
  2374 34D6 20 65 2B			jsr CIO.RGET
  2375 34D9 E8				inx
  2376 34DA AD 0D 2C			lda CIO.RGET.RESULT
  2377 34DD 85 88			sta @move.src
  2378 34DF AD 0E 2C			lda CIO.RGET.RESULT+1
  2379 34E2 85 89			sta @move.src+1
  2380 34E4 AC 3F 3D 84 82 AC + 	mwy DATACOMMENT :bp2
  2381 34EE A0 00			ldy #$00
  2382 34F0 B1 88 91 82 C8 D0 + 	mva:rne (@move.src),y (:bp2),y+
  2383 34F7 CA				dex
  2384
  2385 				; optimize OK (heatmap.pas), line = 321
  2386
  2387 34F8 AD D7 43			lda FREECHANNEL
  2388 34FB 85 88			sta CIO.RSKIP.CHN
  2389 34FD A9 00			lda #$00
  2390 34FF 85 8C			sta CIO.RSKIP.BUFFER
  2391 3501 A9 80			lda #$80
  2392 3503 85 8D			sta CIO.RSKIP.BUFFER+1
  2393 3505 20 11 2C			jsr CIO.RSKIP
  2394
  2395 				; optimize OK (heatmap.pas), line = 323
  2396
  2397 3508 AD E9 47			lda NUMROWS
  2398 350B 85 8C			sta :ecx
  2399 350D AD EA 47			lda NUMROWS+1
  2400 3510 85 8D			sta :ecx+1
  2401 3512 AD ED 47			lda NUMCOLS
  2402 3515 85 84			sta :eax
  2403 3517 AD EE 47			lda NUMCOLS+1
  2404 351A 85 85			sta :eax+1
  2405 					.ifdef fmulinit
  2406 					fmulu_16
  2407 					els
  2408 351C 20 A1 26			imulCX
  2409 					eif
  2410 351F A5 84			lda :eax
  2411 3521 8D FD 47			sta DATASIZE
  2412 3524 A5 85			lda :eax+1
  2413 3526 8D FE 47			sta DATASIZE+1
  2414
  2415 				; optimize OK (heatmap.pas), line = 325
  2416
  2417 3529 A9 01			lda #$01
  2418 352B 8D FF 47			sta RECORDCOUNTER
  2419 352E A9 00			lda #$00
  2420 3530 8D 00 48			sta RECORDCOUNTER+1
  2421
  2422 				; optimize OK (heatmap.pas), line = 326
  2423
  2424 3533 8D 01 48			sta RECORDSSKIPPED
  2425 3536 8D 02 48			sta RECORDSSKIPPED+1
  2426
  2427 				; optimize OK (heatmap.pas), line = 328
  2428
  2429 3539 8D 0C 48			sta COLITER
  2430 353C AC E9 47			ldy NUMROWS
  2431 353F 88				dey
  2432 3540 8C 44 35			sty @FORTMP_0854_0
  2433
  2434 3543			l_0857
  2435 				; --- ForToDoCondition
  2436 3543 A9 00			lda @FORTMP_0854_0:#$00
  2437 3545 CD 0C 48			cmp COLITER
  2438 3548 B0 03 4C C1 36		jcc l_0865
  2439
  2440 				; optimize OK (heatmap.pas), line = 330
  2441
  2442 354D AD D7 43			lda FREECHANNEL
  2443 3550 85 88			sta CIO.RSKIP.CHN
  2444 3552 A9 00			lda #$00
  2445 3554 85 8C			sta CIO.RSKIP.BUFFER
  2446 3556 A9 80			lda #$80
  2447 3558 85 8D			sta CIO.RSKIP.BUFFER+1
  2448 355A 20 11 2C			jsr CIO.RSKIP
  2449
  2450 				; optimize OK (heatmap.pas), line = 332
  2451
  2452 355D A9 00			lda #$00
  2453 355F 8D 0B 48			sta ROWITER
  2454 3562 AC ED 47			ldy NUMCOLS
  2455 3565 88				dey
  2456 3566 8C 6A 35			sty @FORTMP_0874_0
  2457
  2458 3569			l_0877
  2459 				; --- ForToDoCondition
  2460 3569 A9 00			lda @FORTMP_0874_0:#$00
  2461 356B CD 0B 48			cmp ROWITER
  2462 356E B0 03 4C A9 36		jcc l_0885
  2463
  2464 				; optimize FAIL ('@print', heatmap.pas), line = 334
  2465
  2466 					@printSTRING #CODEORIGIN+$0230
  2466 				 LDY> CODEORIGIN+$0230\ LDA< CODEORIGIN+$0230\ JSR @PRINTSTRING
  2466 3573 A0 22		 LDY> CODEORIGIN+$0230
  2466 3575 A9 30		 LDA< CODEORIGIN+$0230
  2466 3577 20 2C 29		 JSR @PRINTSTRING
  2467 357A AD FF 47			lda RECORDCOUNTER
  2468 357D AC 00 48			ldy RECORDCOUNTER+1
  2469 3580 20 69 29			jsr @printWORD._ay
  2470 					@printSTRING #CODEORIGIN+$023A
  2470 				 LDY> CODEORIGIN+$023A\ LDA< CODEORIGIN+$023A\ JSR @PRINTSTRING
  2470 3583 A0 22		 LDY> CODEORIGIN+$023A
  2470 3585 A9 3A		 LDA< CODEORIGIN+$023A
  2470 3587 20 2C 29		 JSR @PRINTSTRING
  2471 358A AD FD 47			lda DATASIZE
  2472 358D AC FE 47			ldy DATASIZE+1
  2473 3590 20 69 29			jsr @printWORD._ay
  2474 3593 20 1E 29			@printEOL
  2475
  2476 				; optimize OK (heatmap.pas), line = 336
  2477
  2478 3596 AD D7 43			lda FREECHANNEL
  2479 3599 85 88			sta CIO.RGET.CHN
  2480 359B A9 00			lda #$00
  2481 359D 85 8C			sta CIO.RGET.BUFFER
  2482 359F A9 80			lda #$80
  2483 35A1 85 8D			sta CIO.RGET.BUFFER+1
  2484 35A3 20 65 2B			jsr CIO.RGET
  2485 35A6 E8				inx
  2486 35A7 AD 0D 2C			lda CIO.RGET.RESULT
  2487 35AA 85 88			sta @move.src
  2488 35AC AD 0E 2C			lda CIO.RGET.RESULT+1
  2489 35AF 85 89			sta @move.src+1
  2490 35B1 AC 35 3D 84 82 AC + 	mwy REC :bp2
  2491 35BB A0 00			ldy #$00
  2492 35BD B1 88 91 82 C8 D0 + 	mva:rne (@move.src),y (:bp2),y+
  2493 35C4 CA				dex
  2494
  2495 				; optimize OK (heatmap.pas), line = 338
  2496
  2497 35C5 AD D8 42			lda adr.REC+$01
  2498 35C8 C9 31			cmp #$31
  2499 35CA D0 4C			jne l_08B1
  2500
  2501 				; optimize OK (heatmap.pas), line = 339
  2502
  2503 35CC A9 A4			lda #$A4
  2504 35CE 85 8C			sta :ecx
  2505 35D0 AD 0C 48			lda COLITER
  2506 35D3 85 84			sta :eax
  2507 					.ifdef fmulinit
  2508 					fmulu_8
  2509 					els
  2510 35D5 20 78 26			imulCL
  2511 					eif
  2512 35D8 A9 00			lda #$00
  2513 35DA 85 AE			sta :STACKORIGIN+STACKWIDTH+10
  2514 35DC AD 0B 48			lda ROWITER
  2515 35DF 0A				asl @
  2516 35E0 26 AE			rol :STACKORIGIN+STACKWIDTH+10
  2517 35E2 0A				asl @
  2518 35E3 26 AE			rol :STACKORIGIN+STACKWIDTH+10
  2519 35E5 18 65 84			add :eax
  2520 35E8 85 9D			sta :STACKORIGIN+9
  2521 35EA A5 85			lda :eax+1
  2522 35EC 65 AE			adc :STACKORIGIN+STACKWIDTH+10
  2523 35EE 85 AD			sta :STACKORIGIN+STACKWIDTH+9
  2524 35F0 AD 43 3D			lda DATA
  2525 35F3 18 65 9D			add :STACKORIGIN+9
  2526 35F6 85 82			sta :bp2
  2527 35F8 AD 44 3D			lda DATA+1
  2528 35FB 65 AD			adc :STACKORIGIN+STACKWIDTH+9
  2529 35FD 85 83			sta :bp2+1
  2530 35FF A0 00			ldy #$00
  2531 3601 98				tya
  2532 3602 91 82			sta (:bp2),y
  2533 3604 C8				iny
  2534 3605 91 82			sta (:bp2),y
  2535 3607 C8				iny
  2536 3608 91 82			sta (:bp2),y
  2537 360A C8				iny
  2538 360B 91 82			sta (:bp2),y
  2539
  2540 				; optimize FAIL (0, heatmap.pas), line = 340
  2541
  2542 360D EE 01 48			inc RECORDSSKIPPED
  2543 3610 D0 03			sne
  2544 3612 EE 02 48			inc RECORDSSKIPPED+1
  2545 3615 4C 89 36			jmp l_08D0
  2546 3618			l_08B1
  2547
  2548 				; optimize FAIL (1, heatmap.pas), line = 342
  2549
  2550 3618 E8				inx
  2551 3619 AD 0C 48 95 94		mva COLITER :STACKORIGIN,x
  2552 361E E8				inx
  2553 361F A9 A4 95 94			mva #$A4 :STACKORIGIN,x
  2554 3623 20 90 26			jsr imulBYTE
  2555 3626 20 D2 24			jsr movaBX_EAX
  2556 3629 AD 0B 48 95 94		mva ROWITER :STACKORIGIN,x
  2557 362E A9 00 95 A4			mva #$00 :STACKORIGIN+STACKWIDTH,x
  2558 3632 A9 00 95 A4			mva #$00 :STACKORIGIN+STACKWIDTH,x
  2559 3636				m@index4 0
Macro: M@INDEX4 [Source: macros.asm]
     1 3636 16 94			asl :STACKORIGIN-0,x
     2 3638 36 A4			rol :STACKORIGIN-0+STACKWIDTH,x
     3 363A 16 94			asl :STACKORIGIN-0,x
     4 363C 36 A4			rol :STACKORIGIN-0+STACKWIDTH,x
Source: heatmap.a65
  2560 363E 20 0E 24			jsr addAX_CX
  2561 3641 AD 35 3D 95 94		mva REC :STACKORIGIN,x
  2562 3646 AD 36 3D 95 A4		mva REC+1 :STACKORIGIN+STACKWIDTH,x
  2563 364B 20 B8 30			jsr CONVERTVALUE
  2564 364E E8				inx
  2565 364F AD D1 62 95 94		mva CONVERTVALUE.RESULT :STACKORIGIN,x
  2566 3654 AD D2 62 95 A4		mva CONVERTVALUE.RESULT+1 :STACKORIGIN+STACKWIDTH,x
  2567 3659 AD D3 62 95 B4		mva CONVERTVALUE.RESULT+2 :STACKORIGIN+STACKWIDTH*2,x
  2568 365E AD D4 62 95 C4		mva CONVERTVALUE.RESULT+3 :STACKORIGIN+STACKWIDTH*3,x
  2569 3663 AD 43 3D			lda DATA
  2570 3666 18 75 93			add :STACKORIGIN-1,x
  2571 3669 85 82			sta :bp2
  2572 366B AD 44 3D			lda DATA+1
  2573 366E 75 A3			adc :STACKORIGIN-1+STACKWIDTH,x
  2574 3670 85 83			sta :bp2+1
  2575 3672 A0 00			ldy #$00
  2576 3674 B5 94			lda :STACKORIGIN,x
  2577 3676 91 82			sta (:bp2),y
  2578 3678 C8				iny
  2579 3679 B5 A4			lda :STACKORIGIN+STACKWIDTH,x
  2580 367B 91 82			sta (:bp2),y
  2581 367D C8				iny
  2582 367E B5 B4			lda :STACKORIGIN+STACKWIDTH*2,x
  2583 3680 91 82			sta (:bp2),y
  2584 3682 C8				iny
  2585 3683 B5 C4			lda :STACKORIGIN+STACKWIDTH*3,x
  2586 3685 91 82			sta (:bp2),y
  2587 3687 CA				dex
  2588 3688 CA				dex
  2589 3689			l_08D0
  2590
  2591 				; optimize FAIL (0, heatmap.pas), line = 345
  2592
  2593 3689 EE FF 47			inc RECORDCOUNTER
  2594 368C D0 03			sne
  2595 368E EE 00 48			inc RECORDCOUNTER+1
  2596
  2597 				; optimize OK (heatmap.pas), line = 347
  2598
  2599 3691 AD D7 43			lda FREECHANNEL
  2600 3694 85 88			sta CIO.RSKIP.CHN
  2601 3696 A9 00			lda #$00
  2602 3698 85 8C			sta CIO.RSKIP.BUFFER
  2603 369A A9 80			lda #$80
  2604 369C 85 8D			sta CIO.RSKIP.BUFFER+1
  2605 369E 20 11 2C			jsr CIO.RSKIP
  2606
  2607 				; --- ForToDoEpilog
  2608 36A1 EE 0B 48			inc ROWITER
  2609 36A4 F0 03 4C 69 35		jne l_0877
  2610 36A9			l_0885
  2611
  2612 				; optimize OK (heatmap.pas), line = 351
  2613
  2614 36A9 AD D7 43			lda FREECHANNEL
  2615 36AC 85 88			sta CIO.RSKIP.CHN
  2616 36AE A9 00			lda #$00
  2617 36B0 85 8C			sta CIO.RSKIP.BUFFER
  2618 36B2 A9 80			lda #$80
  2619 36B4 85 8D			sta CIO.RSKIP.BUFFER+1
  2620 36B6 20 11 2C			jsr CIO.RSKIP
  2621
  2622 				; --- ForToDoEpilog
  2623 36B9 EE 0C 48			inc COLITER
  2624 36BC F0 03 4C 43 35		jne l_0857
  2625 36C1			l_0865
  2626
  2627 				; optimize FAIL ('@print', heatmap.pas), line = 355
  2628
  2629 					@printSTRING #CODEORIGIN+$0240
  2629 				 LDY> CODEORIGIN+$0240\ LDA< CODEORIGIN+$0240\ JSR @PRINTSTRING
  2629 36C1 A0 22		 LDY> CODEORIGIN+$0240
  2629 36C3 A9 40		 LDA< CODEORIGIN+$0240
  2629 36C5 20 2C 29		 JSR @PRINTSTRING
  2630 36C8 20 1E 29			@printEOL
  2631
  2632 				; optimize OK (heatmap.pas), line = 359
  2633
  2634 36CB AD D7 43			lda FREECHANNEL
  2635 36CE 20 4A 2B			jsr CIO.CLS
  2636
  2637 				; optimize OK (heatmap.pas), line = 361
  2638
  2639 36D1 AD 02 48			lda RECORDSSKIPPED+1
  2640 36D4 0D 01 48			ora RECORDSSKIPPED
  2641 36D7 F0 13			jeq l_0913
  2642 					@printSTRING #CODEORIGIN+$0259
  2642 				 LDY> CODEORIGIN+$0259\ LDA< CODEORIGIN+$0259\ JSR @PRINTSTRING
  2642 36D9 A0 22		 LDY> CODEORIGIN+$0259
  2642 36DB A9 59		 LDA< CODEORIGIN+$0259
  2642 36DD 20 2C 29		 JSR @PRINTSTRING
  2643 36E0 AD 01 48			lda RECORDSSKIPPED
  2644 36E3 AC 02 48			ldy RECORDSSKIPPED+1
  2645 36E6 20 69 29			jsr @printWORD._ay
  2646 36E9 20 1E 29			@printEOL
  2647 36EC			l_0913
  2648
  2649 				; optimize FAIL ('CRT.CURSORON', heatmap.pas), line = 363
  2650
  2651 36EC 20 F4 2A			jsr CRT.CURSORON
  2652
  2653 				; ------------------------------------------------------------
  2654
  2655 36EF			@exit
  2656 					.ifdef @new
  2657 					lda <@VarData
  2658 					sta :ztmp
  2659 					lda >@VarData
  2660 					ldy #@VarDataSize-1
  2661 					jmp @FreeMem
  2662 					els
  2663 36EF 60				rts						; ret
  2664 					eif
  2665 				.endl
  2666
  2667 36F0			.local	CALCULATEHEATMAP				; PROCEDURE
  2668
  2669 				; optimize FAIL ('@print', heatmap.pas), line = 377
  2670
  2671 					@printSTRING #CODEORIGIN+$027C
  2671 				 LDY> CODEORIGIN+$027C\ LDA< CODEORIGIN+$027C\ JSR @PRINTSTRING
  2671 36F0 A0 22		 LDY> CODEORIGIN+$027C
  2671 36F2 A9 7C		 LDA< CODEORIGIN+$027C
  2671 36F4 20 2C 29		 JSR @PRINTSTRING
  2672 36F7 20 1E 29			@printEOL
  2673
  2674 				; optimize OK (heatmap.pas), line = 379
  2675
  2676 36FA A9 00			lda #$00
  2677 36FC 8D 03 48			sta DATAMAX
  2678 36FF 8D 04 48			sta DATAMAX+1
  2679 3702 8D 05 48			sta DATAMAX+2
  2680 3705 A9 80			lda #$80
  2681 3707 8D 06 48			sta DATAMAX+3
  2682
  2683 				; optimize OK (heatmap.pas), line = 380
  2684
  2685 370A A9 FF			lda #$FF
  2686 370C 8D 07 48			sta DATAMIN
  2687 370F 8D 08 48			sta DATAMIN+1
  2688 3712 8D 09 48			sta DATAMIN+2
  2689 3715 A9 7F			lda #$7F
  2690 3717 8D 0A 48			sta DATAMIN+3
  2691
  2692 				; optimize OK (heatmap.pas), line = 382
  2693
  2694 371A A9 00			lda #$00
  2695 371C 8D 0B 48			sta ROWITER
  2696 371F AC E9 47			ldy NUMROWS
  2697 3722 88				dey
  2698 3723 8C 27 37			sty @FORTMP_093A_0
  2699
  2700 3726			l_093D
  2701 				; --- ForToDoCondition
  2702 3726 A9 00			lda @FORTMP_093A_0:#$00
  2703 3728 CD 0B 48			cmp ROWITER
  2704 372B B0 03 4C D6 38		jcc l_094B
  2705
  2706 				; optimize OK (heatmap.pas), line = 384
  2707
  2708 3730 A9 00			lda #$00
  2709 3732 8D 0C 48			sta COLITER
  2710 3735 AC ED 47			ldy NUMCOLS
  2711 3738 88				dey
  2712 3739 8C 3D 37			sty @FORTMP_0955_0
  2713
  2714 373C			l_0958
  2715 				; --- ForToDoCondition
  2716 373C A9 00			lda @FORTMP_0955_0:#$00
  2717 373E CD 0C 48			cmp COLITER
  2718 3741 B0 03 4C CE 38		jcc l_0966
  2719
  2720 				; optimize OK (heatmap.pas), line = 386
  2721
  2722 3746 A9 A4			lda #$A4
  2723 3748 85 8C			sta :ecx
  2724 374A AD 0B 48			lda ROWITER
  2725 374D 85 84			sta :eax
  2726 					.ifdef fmulinit
  2727 					fmulu_8
  2728 					els
  2729 374F 20 78 26			imulCL
  2730 					eif
  2731 3752 A9 00			lda #$00
  2732 3754 85 AE			sta :STACKORIGIN+STACKWIDTH+10
  2733 3756 AD 0C 48			lda COLITER
  2734 3759 0A				asl @
  2735 375A 26 AE			rol :STACKORIGIN+STACKWIDTH+10
  2736 375C 0A				asl @
  2737 375D 26 AE			rol :STACKORIGIN+STACKWIDTH+10
  2738 375F 18 65 84			add :eax
  2739 3762 85 9D			sta :STACKORIGIN+9
  2740 3764 A5 85			lda :eax+1
  2741 3766 65 AE			adc :STACKORIGIN+STACKWIDTH+10
  2742 3768 85 AD			sta :STACKORIGIN+STACKWIDTH+9
  2743 376A AD 43 3D			lda DATA
  2744 376D 18 65 9D			add :STACKORIGIN+9
  2745 3770 85 82			sta :bp2
  2746 3772 AD 44 3D			lda DATA+1
  2747 3775 65 AD			adc :STACKORIGIN+STACKWIDTH+9
  2748 3777 85 83			sta :bp2+1
  2749 3779 A0 00			ldy #$00
  2750 377B B1 82			lda (:bp2),y
  2751 377D 85 9D			sta :STACKORIGIN+9
  2752 377F C8				iny
  2753 3780 B1 82			lda (:bp2),y
  2754 3782 85 AD			sta :STACKORIGIN+STACKWIDTH+9
  2755 3784 C8				iny
  2756 3785 B1 82			lda (:bp2),y
  2757 3787 85 BD			sta :STACKORIGIN+STACKWIDTH*2+9
  2758 3789 C8				iny
  2759 378A				.LOCAL
  2760 378A B1 82			lda (:bp2),y
  2761 378C 38 ED 06 48			sub DATAMAX+3
  2762 3790 D0 1F			bne L4
  2763 3792 A5 BD			lda :STACKORIGIN+STACKWIDTH*2+9
  2764 3794 CD 05 48			cmp DATAMAX+2
  2765 3797 D0 0C			bne L1
  2766 3799 A5 AD			lda :STACKORIGIN+STACKWIDTH+9
  2767 379B CD 04 48			cmp DATAMAX+1
  2768 379E D0 05			bne L1
  2769 37A0 A5 9D			lda :STACKORIGIN+9
  2770 37A2 CD 03 48			cmp DATAMAX
  2771 37A5 F0 10		L1	beq L5
  2772 37A7 B0 04			bcs L3
  2773 37A9 A9 FF			lda #$FF
  2774 37AB D0 0A			bne L5
  2775 37AD A9 01		L3	lda #$01
  2776 37AF D0 06			bne L5
  2777 37B1 50 04		L4	bvc L5
  2778 37B3 49 FF			eor #$FF
  2779 37B5 09 01			ora #$01
  2780 37B7			L5
  2781 					.ENDL
  2782 37B7 30 4E			jmi l_0983
  2783 37B9 F0 4C			jeq l_0983
  2784
  2785 				; optimize OK (heatmap.pas), line = 387
  2786
  2787 37BB A9 A4			lda #$A4
  2788 37BD 85 8C			sta :ecx
  2789 37BF AD 0B 48			lda ROWITER
  2790 37C2 85 84			sta :eax
  2791 					.ifdef fmulinit
  2792 					fmulu_8
  2793 					els
  2794 37C4 20 78 26			imulCL
  2795 					eif
  2796 37C7 A9 00			lda #$00
  2797 37C9 85 AE			sta :STACKORIGIN+STACKWIDTH+10
  2798 37CB AD 0C 48			lda COLITER
  2799 37CE 0A				asl @
  2800 37CF 26 AE			rol :STACKORIGIN+STACKWIDTH+10
  2801 37D1 0A				asl @
  2802 37D2 26 AE			rol :STACKORIGIN+STACKWIDTH+10
  2803 37D4 18 65 84			add :eax
  2804 37D7 85 9D			sta :STACKORIGIN+9
  2805 37D9 A5 85			lda :eax+1
  2806 37DB 65 AE			adc :STACKORIGIN+STACKWIDTH+10
  2807 37DD 85 AD			sta :STACKORIGIN+STACKWIDTH+9
  2808 37DF AD 43 3D			lda DATA
  2809 37E2 18 65 9D			add :STACKORIGIN+9
  2810 37E5 85 82			sta :bp2
  2811 37E7 AD 44 3D			lda DATA+1
  2812 37EA 65 AD			adc :STACKORIGIN+STACKWIDTH+9
  2813 37EC 85 83			sta :bp2+1
  2814 37EE A0 00			ldy #$00
  2815 37F0 B1 82			lda (:bp2),y
  2816 37F2 8D 03 48			sta DATAMAX
  2817 37F5 C8				iny
  2818 37F6 B1 82			lda (:bp2),y
  2819 37F8 8D 04 48			sta DATAMAX+1
  2820 37FB C8				iny
  2821 37FC B1 82			lda (:bp2),y
  2822 37FE 8D 05 48			sta DATAMAX+2
  2823 3801 C8				iny
  2824 3802 B1 82			lda (:bp2),y
  2825 3804 8D 06 48			sta DATAMAX+3
  2826 3807			l_0983
  2827
  2828 				; optimize OK (heatmap.pas), line = 389
  2829
  2830 3807 A9 A4			lda #$A4
  2831 3809 85 8C			sta :ecx
  2832 380B AD 0B 48			lda ROWITER
  2833 380E 85 84			sta :eax
  2834 					.ifdef fmulinit
  2835 					fmulu_8
  2836 					els
  2837 3810 20 78 26			imulCL
  2838 					eif
  2839 3813 A9 00			lda #$00
  2840 3815 85 AE			sta :STACKORIGIN+STACKWIDTH+10
  2841 3817 AD 0C 48			lda COLITER
  2842 381A 0A				asl @
  2843 381B 26 AE			rol :STACKORIGIN+STACKWIDTH+10
  2844 381D 0A				asl @
  2845 381E 26 AE			rol :STACKORIGIN+STACKWIDTH+10
  2846 3820 18 65 84			add :eax
  2847 3823 85 9D			sta :STACKORIGIN+9
  2848 3825 A5 85			lda :eax+1
  2849 3827 65 AE			adc :STACKORIGIN+STACKWIDTH+10
  2850 3829 85 AD			sta :STACKORIGIN+STACKWIDTH+9
  2851 382B AD 43 3D			lda DATA
  2852 382E 18 65 9D			add :STACKORIGIN+9
  2853 3831 85 82			sta :bp2
  2854 3833 AD 44 3D			lda DATA+1
  2855 3836 65 AD			adc :STACKORIGIN+STACKWIDTH+9
  2856 3838 85 83			sta :bp2+1
  2857 383A A0 00			ldy #$00
  2858 383C B1 82			lda (:bp2),y
  2859 383E 85 9D			sta :STACKORIGIN+9
  2860 3840 C8				iny
  2861 3841 B1 82			lda (:bp2),y
  2862 3843 85 AD			sta :STACKORIGIN+STACKWIDTH+9
  2863 3845 C8				iny
  2864 3846 B1 82			lda (:bp2),y
  2865 3848 85 BD			sta :STACKORIGIN+STACKWIDTH*2+9
  2866 384A C8				iny
  2867 384B				.LOCAL
  2868 384B B1 82			lda (:bp2),y
  2869 384D 38 ED 0A 48			sub DATAMIN+3
  2870 3851 D0 1F			bne L4
  2871 3853 A5 BD			lda :STACKORIGIN+STACKWIDTH*2+9
  2872 3855 CD 09 48			cmp DATAMIN+2
  2873 3858 D0 0C			bne L1
  2874 385A A5 AD			lda :STACKORIGIN+STACKWIDTH+9
  2875 385C CD 08 48			cmp DATAMIN+1
  2876 385F D0 05			bne L1
  2877 3861 A5 9D			lda :STACKORIGIN+9
  2878 3863 CD 07 48			cmp DATAMIN
  2879 3866 F0 10		L1	beq L5
  2880 3868 B0 04			bcs L3
  2881 386A A9 FF			lda #$FF
  2882 386C D0 0A			bne L5
  2883 386E A9 01		L3	lda #$01
  2884 3870 D0 06			bne L5
  2885 3872 50 04		L4	bvc L5
  2886 3874 49 FF			eor #$FF
  2887 3876 09 01			ora #$01
  2888 3878			L5
  2889 					.ENDL
  2890 3878 10 4C			jpl l_09B4
  2891
  2892 				; optimize OK (heatmap.pas), line = 390
  2893
  2894 387A A9 A4			lda #$A4
  2895 387C 85 8C			sta :ecx
  2896 387E AD 0B 48			lda ROWITER
  2897 3881 85 84			sta :eax
  2898 					.ifdef fmulinit
  2899 					fmulu_8
  2900 					els
  2901 3883 20 78 26			imulCL
  2902 					eif
  2903 3886 A9 00			lda #$00
  2904 3888 85 AE			sta :STACKORIGIN+STACKWIDTH+10
  2905 388A AD 0C 48			lda COLITER
  2906 388D 0A				asl @
  2907 388E 26 AE			rol :STACKORIGIN+STACKWIDTH+10
  2908 3890 0A				asl @
  2909 3891 26 AE			rol :STACKORIGIN+STACKWIDTH+10
  2910 3893 18 65 84			add :eax
  2911 3896 85 9D			sta :STACKORIGIN+9
  2912 3898 A5 85			lda :eax+1
  2913 389A 65 AE			adc :STACKORIGIN+STACKWIDTH+10
  2914 389C 85 AD			sta :STACKORIGIN+STACKWIDTH+9
  2915 389E AD 43 3D			lda DATA
  2916 38A1 18 65 9D			add :STACKORIGIN+9
  2917 38A4 85 82			sta :bp2
  2918 38A6 AD 44 3D			lda DATA+1
  2919 38A9 65 AD			adc :STACKORIGIN+STACKWIDTH+9
  2920 38AB 85 83			sta :bp2+1
  2921 38AD A0 00			ldy #$00
  2922 38AF B1 82			lda (:bp2),y
  2923 38B1 8D 07 48			sta DATAMIN
  2924 38B4 C8				iny
  2925 38B5 B1 82			lda (:bp2),y
  2926 38B7 8D 08 48			sta DATAMIN+1
  2927 38BA C8				iny
  2928 38BB B1 82			lda (:bp2),y
  2929 38BD 8D 09 48			sta DATAMIN+2
  2930 38C0 C8				iny
  2931 38C1 B1 82			lda (:bp2),y
  2932 38C3 8D 0A 48			sta DATAMIN+3
  2933 38C6			l_09B4
  2934
  2935 				; --- ForToDoEpilog
  2936 38C6 EE 0C 48			inc COLITER
  2937 38C9 F0 03 4C 3C 37		jne l_0958
  2938 38CE			l_0966
  2939
  2940 				; --- ForToDoEpilog
  2941 38CE EE 0B 48			inc ROWITER
  2942 38D1 F0 03 4C 26 37		jne l_093D
  2943 38D6			l_094B
  2944
  2945 				; optimize FAIL ('@print', heatmap.pas), line = 397
  2946
  2947 					@printSTRING #CODEORIGIN+$029E
  2947 				 LDY> CODEORIGIN+$029E\ LDA< CODEORIGIN+$029E\ JSR @PRINTSTRING
  2947 38D6 A0 22		 LDY> CODEORIGIN+$029E
  2947 38D8 A9 9E		 LDA< CODEORIGIN+$029E
  2947 38DA 20 2C 29		 JSR @PRINTSTRING
  2948 38DD E8				inx
  2949 38DE AD 03 48 95 94		mva DATAMAX :STACKORIGIN,x
  2950 38E3 AD 04 48 95 A4		mva DATAMAX+1 :STACKORIGIN+STACKWIDTH,x
  2951 38E8 AD 05 48 95 B4		mva DATAMAX+2 :STACKORIGIN+STACKWIDTH*2,x
  2952 38ED AD 06 48 95 C4		mva DATAMAX+3 :STACKORIGIN+STACKWIDTH*3,x
  2953 38F2 20 5B 29			jsr @printINT
  2954 38F5 CA				dex
  2955 					@printSTRING #CODEORIGIN+$02A5
  2955 				 LDY> CODEORIGIN+$02A5\ LDA< CODEORIGIN+$02A5\ JSR @PRINTSTRING
  2955 38F6 A0 22		 LDY> CODEORIGIN+$02A5
  2955 38F8 A9 A5		 LDA< CODEORIGIN+$02A5
  2955 38FA 20 2C 29		 JSR @PRINTSTRING
  2956 38FD E8				inx
  2957 38FE AD 07 48 95 94		mva DATAMIN :STACKORIGIN,x
  2958 3903 AD 08 48 95 A4		mva DATAMIN+1 :STACKORIGIN+STACKWIDTH,x
  2959 3908 AD 09 48 95 B4		mva DATAMIN+2 :STACKORIGIN+STACKWIDTH*2,x
  2960 390D AD 0A 48 95 C4		mva DATAMIN+3 :STACKORIGIN+STACKWIDTH*3,x
  2961 3912 20 5B 29			jsr @printINT
  2962 3915 CA				dex
  2963 3916 20 1E 29			@printEOL
  2964
  2965 				; optimize FAIL ('@print', heatmap.pas), line = 398
  2966
  2967 3919 20 1E 29			@printEOL
  2968
  2969 				; optimize OK (heatmap.pas), line = 400
  2970
  2971 391C				.LOCAL
  2972 391C AD 06 48			lda DATAMAX+3
  2973 391F 38 E9 00			sub #$00
  2974 3922 D0 1F			bne L4
  2975 3924 AD 05 48			lda DATAMAX+2
  2976 3927 C9 00			cmp #$00
  2977 3929 D0 0C			bne L1
  2978 392B AD 04 48			lda DATAMAX+1
  2979 392E C9 00			cmp #$00
  2980 3930 D0 05			bne L1
  2981 3932 AD 03 48			lda DATAMAX
  2982 3935 C9 0E			cmp #$0E
  2983 3937 F0 10		L1	beq L5
  2984 3939 B0 04			bcs L3
  2985 393B A9 FF			lda #$FF
  2986 393D D0 0A			bne L5
  2987 393F A9 01		L3	lda #$01
  2988 3941 D0 06			bne L5
  2989 3943 50 04		L4	bvc L5
  2990 3945 49 FF			eor #$FF
  2991 3947 09 01			ora #$01
  2992 3949			L5
  2993 					.ENDL
  2994 3949 F0 02			seq
  2995 394B 10 03			bpl @+
  2996 394D 4C 53 39			jmp *+6
  2997 3950 4C 5B 39		@	jmp l_09FEx
  2998 3953 AD 0A 48			lda DATAMIN+3
  2999 3956 30 03 4C 0C 3B		jpl l_09FE
  3000 395B			l_09FEx
  3001
  3002 				; optimize FAIL ('@print', heatmap.pas), line = 402
  3003
  3004 					@printSTRING #CODEORIGIN+$02AD
  3004 				 LDY> CODEORIGIN+$02AD\ LDA< CODEORIGIN+$02AD\ JSR @PRINTSTRING
  3004 395B A0 22		 LDY> CODEORIGIN+$02AD
  3004 395D A9 AD		 LDA< CODEORIGIN+$02AD
  3004 395F 20 2C 29		 JSR @PRINTSTRING
  3005 3962 20 1E 29			@printEOL
  3006
  3007 				; optimize FAIL ('@print', heatmap.pas), line = 406
  3008
  3009 					@printSTRING #CODEORIGIN+$02C7
  3009 				 LDY> CODEORIGIN+$02C7\ LDA< CODEORIGIN+$02C7\ JSR @PRINTSTRING
  3009 3965 A0 22		 LDY> CODEORIGIN+$02C7
  3009 3967 A9 C7		 LDA< CODEORIGIN+$02C7
  3009 3969 20 2C 29		 JSR @PRINTSTRING
  3010 396C 20 1E 29			@printEOL
  3011
  3012 				; optimize FAIL ('@print', heatmap.pas), line = 407
  3013
  3014 					@printSTRING #CODEORIGIN+$02EA
  3014 				 LDY> CODEORIGIN+$02EA\ LDA< CODEORIGIN+$02EA\ JSR @PRINTSTRING
  3014 396F A0 22		 LDY> CODEORIGIN+$02EA
  3014 3971 A9 EA		 LDA< CODEORIGIN+$02EA
  3014 3973 20 2C 29		 JSR @PRINTSTRING
  3015 3976 20 1E 29			@printEOL
  3016
  3017 				; optimize OK (heatmap.pas), line = 411
  3018
  3019 3979 AD 03 48			lda DATAMAX
  3020 397C 38 ED 07 48			sub DATAMIN
  3021 3980 8D 0D 48			sta INPUTRANGE
  3022 3983 AD 04 48			lda DATAMAX+1
  3023 3986 ED 08 48			sbc DATAMIN+1
  3024 3989 8D 0E 48			sta INPUTRANGE+1
  3025 398C AD 05 48			lda DATAMAX+2
  3026 398F ED 09 48			sbc DATAMIN+2
  3027 3992 8D 0F 48			sta INPUTRANGE+2
  3028 3995 AD 06 48			lda DATAMAX+3
  3029 3998 ED 0A 48			sbc DATAMIN+3
  3030 399B 8D 10 48			sta INPUTRANGE+3
  3031
  3032 				; optimize OK (heatmap.pas), line = 413
  3033
  3034 399E A9 00			lda #$00
  3035 39A0 8D 0B 48			sta ROWITER
  3036 39A3 AC E9 47			ldy NUMROWS
  3037 39A6 88				dey
  3038 39A7 8C AB 39			sty @FORTMP_0A1A_0
  3039
  3040 39AA			l_0A1D
  3041 				; --- ForToDoCondition
  3042 39AA A9 00			lda @FORTMP_0A1A_0:#$00
  3043 39AC CD 0B 48			cmp ROWITER
  3044 39AF B0 03 4C 0C 3B		jcc l_0A2B
  3045
  3046 				; optimize OK (heatmap.pas), line = 415
  3047
  3048 39B4 A9 00			lda #$00
  3049 39B6 8D 0C 48			sta COLITER
  3050 39B9 AC ED 47			ldy NUMCOLS
  3051 39BC 88				dey
  3052 39BD 8C C1 39			sty @FORTMP_0A35_0
  3053
  3054 39C0			l_0A38
  3055 				; --- ForToDoCondition
  3056 39C0 A9 00			lda @FORTMP_0A35_0:#$00
  3057 39C2 CD 0C 48			cmp COLITER
  3058 39C5 B0 03 4C 04 3B		jcc l_0A46
  3059
  3060 				; optimize FAIL ('divmulINT.REAL', heatmap.pas), line = 419
  3061
  3062 39CA E8				inx
  3063 39CB AD 0B 48 95 94		mva ROWITER :STACKORIGIN,x
  3064 39D0 E8				inx
  3065 39D1 A9 A4 95 94			mva #$A4 :STACKORIGIN,x
  3066 39D5 20 90 26			jsr imulBYTE
  3067 39D8 20 D2 24			jsr movaBX_EAX
  3068 39DB AD 0C 48 95 94		mva COLITER :STACKORIGIN,x
  3069 39E0 A9 00 95 A4			mva #$00 :STACKORIGIN+STACKWIDTH,x
  3070 39E4 A9 00 95 A4			mva #$00 :STACKORIGIN+STACKWIDTH,x
  3071 39E8				m@index4 0
Macro: M@INDEX4 [Source: macros.asm]
     1 39E8 16 94			asl :STACKORIGIN-0,x
     2 39EA 36 A4			rol :STACKORIGIN-0+STACKWIDTH,x
     3 39EC 16 94			asl :STACKORIGIN-0,x
     4 39EE 36 A4			rol :STACKORIGIN-0+STACKWIDTH,x
Source: heatmap.a65
  3072 39F0 20 0E 24			jsr addAX_CX
  3073 39F3 A9 00 95 94			mva #$00 :STACKORIGIN,x
  3074 39F7 A9 0E 95 A4			mva #$0E :STACKORIGIN+STACKWIDTH,x
  3075 39FB A9 00 95 B4			mva #$00 :STACKORIGIN+STACKWIDTH*2,x
  3076 39FF A9 00 95 C4			mva #$00 :STACKORIGIN+STACKWIDTH*3,x
  3077 3A03 E8				inx
  3078 3A04 AD 0D 48 95 94		mva INPUTRANGE :STACKORIGIN,x
  3079 3A09 AD 0E 48 95 A4		mva INPUTRANGE+1 :STACKORIGIN+STACKWIDTH,x
  3080 3A0E AD 0F 48 95 B4		mva INPUTRANGE+2 :STACKORIGIN+STACKWIDTH*2,x
  3081 3A13 AD 10 48 95 C4		mva INPUTRANGE+3 :STACKORIGIN+STACKWIDTH*3,x
  3082 3A18 20 A0 24			jsr @expandToREAL
  3083 3A1B 20 31 26			jsr divmulINT.REAL
  3084 3A1E AD 0B 48 95 94		mva ROWITER :STACKORIGIN,x
  3085 3A23 A9 00 95 A4			mva #$00 :STACKORIGIN+STACKWIDTH,x
  3086 3A27 E8				inx
  3087 3A28 A9 A4 95 94			mva #$A4 :STACKORIGIN,x
  3088 3A2C A9 00 95 A4			mva #$00 :STACKORIGIN+STACKWIDTH,x
  3089 3A30 20 CB 26			jsr imulWORD
  3090 3A33 20 D2 24			jsr movaBX_EAX
  3091 3A36 AD 0C 48 95 94		mva COLITER :STACKORIGIN,x
  3092 3A3B A9 00 95 A4			mva #$00 :STACKORIGIN+STACKWIDTH,x
  3093 3A3F A9 00 95 A4			mva #$00 :STACKORIGIN+STACKWIDTH,x
  3094 3A43				m@index4 0
Macro: M@INDEX4 [Source: macros.asm]
     1 3A43 16 94			asl :STACKORIGIN-0,x
     2 3A45 36 A4			rol :STACKORIGIN-0+STACKWIDTH,x
     3 3A47 16 94			asl :STACKORIGIN-0,x
     4 3A49 36 A4			rol :STACKORIGIN-0+STACKWIDTH,x
Source: heatmap.a65
  3095 3A4B 20 0E 24			jsr addAX_CX
  3096 3A4E CA				dex
  3097 3A4F AD 43 3D			lda DATA
  3098 3A52 18 75 94			add :STACKORIGIN,x
  3099 3A55 85 82			sta :bp2
  3100 3A57 AD 44 3D			lda DATA+1
  3101 3A5A 75 A4			adc :STACKORIGIN+STACKWIDTH,x
  3102 3A5C 85 83			sta :bp2+1
  3103 3A5E A0 00			ldy #$00
  3104 3A60 B1 82 95 94			mva (:bp2),y :STACKORIGIN,x
  3105 3A64 C8				iny
  3106 3A65 B1 82 95 A4			mva (:bp2),y :STACKORIGIN+STACKWIDTH,x
  3107 3A69 C8				iny
  3108 3A6A B1 82 95 B4			mva (:bp2),y :STACKORIGIN+STACKWIDTH*2,x
  3109 3A6E C8				iny
  3110 3A6F B1 82 95 C4			mva (:bp2),y :STACKORIGIN+STACKWIDTH*3,x
  3111 3A73 E8				inx
  3112 3A74 AD 07 48 95 94		mva DATAMIN :STACKORIGIN,x
  3113 3A79 AD 08 48 95 A4		mva DATAMIN+1 :STACKORIGIN+STACKWIDTH,x
  3114 3A7E AD 09 48 95 B4		mva DATAMIN+2 :STACKORIGIN+STACKWIDTH*2,x
  3115 3A83 AD 0A 48 95 C4		mva DATAMIN+3 :STACKORIGIN+STACKWIDTH*3,x
  3116 3A88 20 38 24			jsr subEAX_ECX
  3117 3A8B CA				dex
  3118 3A8C 20 A0 24			jsr @expandToREAL
  3119 3A8F B5 94			lda :STACKORIGIN,x
  3120 3A91 85 8C			sta @REAL_MUL.B
  3121 3A93 B5 A4			lda :STACKORIGIN+STACKWIDTH,x
  3122 3A95 85 8D			sta @REAL_MUL.B+1
  3123 3A97 B5 B4			lda :STACKORIGIN+STACKWIDTH*2,x
  3124 3A99 85 8E			sta @REAL_MUL.B+2
  3125 3A9B B5 C4			lda :STACKORIGIN+STACKWIDTH*3,x
  3126 3A9D 85 8F			sta @REAL_MUL.B+3
  3127 3A9F B5 93			lda :STACKORIGIN-1,x
  3128 3AA1 85 84			sta @REAL_MUL.A
  3129 3AA3 B5 A3			lda :STACKORIGIN-1+STACKWIDTH,x
  3130 3AA5 85 85			sta @REAL_MUL.A+1
  3131 3AA7 B5 B3			lda :STACKORIGIN-1+STACKWIDTH*2,x
  3132 3AA9 85 86			sta @REAL_MUL.A+2
  3133 3AAB B5 C3			lda :STACKORIGIN-1+STACKWIDTH*3,x
  3134 3AAD 85 87			sta @REAL_MUL.A+3
  3135 3AAF 20 3C 27			jsr @REAL_MUL
  3136 3AB2 CA				dex
  3137 3AB3 A5 84			lda @REAL_MUL.RESULT
  3138 3AB5 85 84			sta @REAL_ROUND.A
  3139 3AB7 A5 85			lda @REAL_MUL.RESULT+1
  3140 3AB9 85 85			sta @REAL_ROUND.A+1
  3141 3ABB A5 86			lda @REAL_MUL.RESULT+2
  3142 3ABD 85 86			sta @REAL_ROUND.A+2
  3143 3ABF A5 87			lda @REAL_MUL.RESULT+3
  3144 3AC1 85 87			sta @REAL_ROUND.A+3
  3145 3AC3 20 42 28			jsr @REAL_ROUND
  3146 3AC6 A5 84			lda @REAL_ROUND.RESULT
  3147 3AC8 95 94			sta :STACKORIGIN,x
  3148 3ACA A5 85			lda @REAL_ROUND.RESULT+1
  3149 3ACC 95 A4			sta :STACKORIGIN+STACKWIDTH,x
  3150 3ACE A5 86			lda @REAL_ROUND.RESULT+2
  3151 3AD0 95 B4			sta :STACKORIGIN+STACKWIDTH*2,x
  3152 3AD2 A5 87			lda @REAL_ROUND.RESULT+3
  3153 3AD4 95 C4			sta :STACKORIGIN+STACKWIDTH*3,x
  3154 3AD6 AD 43 3D			lda DATA
  3155 3AD9 18 75 93			add :STACKORIGIN-1,x
  3156 3ADC 85 82			sta :bp2
  3157 3ADE AD 44 3D			lda DATA+1
  3158 3AE1 75 A3			adc :STACKORIGIN-1+STACKWIDTH,x
  3159 3AE3 85 83			sta :bp2+1
  3160 3AE5 A0 00			ldy #$00
  3161 3AE7 B5 94			lda :STACKORIGIN,x
  3162 3AE9 91 82			sta (:bp2),y
  3163 3AEB C8				iny
  3164 3AEC B5 A4			lda :STACKORIGIN+STACKWIDTH,x
  3165 3AEE 91 82			sta (:bp2),y
  3166 3AF0 C8				iny
  3167 3AF1 B5 B4			lda :STACKORIGIN+STACKWIDTH*2,x
  3168 3AF3 91 82			sta (:bp2),y
  3169 3AF5 C8				iny
  3170 3AF6 B5 C4			lda :STACKORIGIN+STACKWIDTH*3,x
  3171 3AF8 91 82			sta (:bp2),y
  3172 3AFA CA				dex
  3173 3AFB CA				dex
  3174
  3175 				; --- ForToDoEpilog
  3176 3AFC EE 0C 48			inc COLITER
  3177 3AFF F0 03 4C C0 39		jne l_0A38
  3178 3B04			l_0A46
  3179
  3180 				; --- ForToDoEpilog
  3181 3B04 EE 0B 48			inc ROWITER
  3182 3B07 F0 03 4C AA 39		jne l_0A1D
  3183 3B0C			l_0A2B
  3184 3B0C			l_09FE
  3185
  3186 				; optimize FAIL ('@print', heatmap.pas), line = 427
  3187
  3188 					@printSTRING #CODEORIGIN+$02F8
  3188 				 LDY> CODEORIGIN+$02F8\ LDA< CODEORIGIN+$02F8\ JSR @PRINTSTRING
  3188 3B0C A0 22		 LDY> CODEORIGIN+$02F8
  3188 3B0E A9 F8		 LDA< CODEORIGIN+$02F8
  3188 3B10 20 2C 29		 JSR @PRINTSTRING
  3189 3B13 20 1E 29			@printEOL
  3190
  3191 				; optimize FAIL ('@print', heatmap.pas), line = 428
  3192
  3193 					@printSTRING #CODEORIGIN+$0311
  3193 				 LDY> CODEORIGIN+$0311\ LDA< CODEORIGIN+$0311\ JSR @PRINTSTRING
  3193 3B16 A0 23		 LDY> CODEORIGIN+$0311
  3193 3B18 A9 11		 LDA< CODEORIGIN+$0311
  3193 3B1A 20 2C 29		 JSR @PRINTSTRING
  3194 3B1D 20 1E 29			@printEOL
  3195
  3196 				; --- RepeatUntilProlog
  3197 3B20			l_0A86
  3198
  3199 				; optimize FAIL ('CRT.KEYPRESSED', heatmap.pas), line = 430
  3200
  3201 3B20 20 04 2B			jsr CRT.KEYPRESSED
  3202 3B23 AD 60 3E			lda CRT.KEYPRESSED.RESULT
  3203 3B26 F0 F8			jeq l_0A86
  3204
  3205 				; optimize FAIL ('CLEARKEYS', heatmap.pas), line = 432
  3206
  3207 3B28 20 03 2E			jsr CLEARKEYS
  3208
  3209 				; ------------------------------------------------------------
  3210
  3211 3B2B			@exit
  3212 					.ifdef @new
  3213 					lda <@VarData
  3214 					sta :ztmp
  3215 					lda >@VarData
  3216 					ldy #@VarDataSize-1
  3217 					jmp @FreeMem
  3218 					els
  3219 3B2B 60				rts						; ret
  3220 					eif
  3221 				.endl
  3222
  3223 3B2C			.local	DISPLAYHEATMAP					; PROCEDURE
  3224
  3225 				; optimize OK (heatmap.pas), line = 446
  3226
  3227 3B2C A9 0B			lda #$0B
  3228 3B2E 20 64 2D			jsr GRAPH.INITGRAPH_0517
  3229
  3230 				; optimize FAIL ('divmulINT.DIV', heatmap.pas), line = 450
  3231
  3232 3B31 E8				inx
  3233 3B32 A9 50 95 94			mva #$50 :STACKORIGIN,x
  3234 3B36 E8				inx
  3235 3B37 AD ED 47 95 94		mva NUMCOLS :STACKORIGIN,x
  3236 3B3C AD EE 47 95 A4		mva NUMCOLS+1 :STACKORIGIN+STACKWIDTH,x
  3237 3B41 AD EF 47 95 B4		mva NUMCOLS+2 :STACKORIGIN+STACKWIDTH*2,x
  3238 3B46 AD F0 47 95 C4		mva NUMCOLS+3 :STACKORIGIN+STACKWIDTH*3,x
  3239 3B4B A9 00 95 A3			mva #$00 :STACKORIGIN-1+STACKWIDTH,x
  3240 3B4F A9 00 95 B3			mva #$00 :STACKORIGIN-1+STACKWIDTH*2,x
  3241 3B53 A9 00 95 C3			mva #$00 :STACKORIGIN-1+STACKWIDTH*3,x
  3242 3B57 20 38 24			jsr subEAX_ECX
  3243 3B5A A9 02 95 94			mva #$02 :STACKORIGIN,x
  3244 3B5E A9 00 95 A4			mva #$00 :STACKORIGIN+STACKWIDTH,x
  3245 3B62 A9 00 95 B4			mva #$00 :STACKORIGIN+STACKWIDTH*2,x
  3246 3B66 A9 00 95 C4			mva #$00 :STACKORIGIN+STACKWIDTH*3,x
  3247 3B6A 20 43 26			jsr divmulINT.DIV
  3248 3B6D CA				dex
  3249 3B6E B5 94			lda :STACKORIGIN,x
  3250 3B70 8D 11 48			sta XMARGIN
  3251
  3252 				; optimize FAIL ('divmulINT.DIV', heatmap.pas), line = 454
  3253
  3254 3B73 A9 50 95 94			mva #$50 :STACKORIGIN,x
  3255 3B77 E8				inx
  3256 3B78 AD E9 47 95 94		mva NUMROWS :STACKORIGIN,x
  3257 3B7D AD EA 47 95 A4		mva NUMROWS+1 :STACKORIGIN+STACKWIDTH,x
  3258 3B82 AD EB 47 95 B4		mva NUMROWS+2 :STACKORIGIN+STACKWIDTH*2,x
  3259 3B87 AD EC 47 95 C4		mva NUMROWS+3 :STACKORIGIN+STACKWIDTH*3,x
  3260 3B8C A9 00 95 A3			mva #$00 :STACKORIGIN-1+STACKWIDTH,x
  3261 3B90 A9 00 95 B3			mva #$00 :STACKORIGIN-1+STACKWIDTH*2,x
  3262 3B94 A9 00 95 C3			mva #$00 :STACKORIGIN-1+STACKWIDTH*3,x
  3263 3B98 20 38 24			jsr subEAX_ECX
  3264 3B9B A9 02 95 94			mva #$02 :STACKORIGIN,x
  3265 3B9F A9 00 95 A4			mva #$00 :STACKORIGIN+STACKWIDTH,x
  3266 3BA3 A9 00 95 B4			mva #$00 :STACKORIGIN+STACKWIDTH*2,x
  3267 3BA7 A9 00 95 C4			mva #$00 :STACKORIGIN+STACKWIDTH*3,x
  3268 3BAB 20 43 26			jsr divmulINT.DIV
  3269 3BAE CA				dex
  3270 3BAF B5 94			lda :STACKORIGIN,x
  3271 3BB1 8D 12 48			sta YMARGIN
  3272 3BB4 CA				dex
  3273
  3274 				; optimize OK (heatmap.pas), line = 456
  3275
  3276 3BB5 A9 00			lda #$00
  3277 3BB7 8D 0B 48			sta ROWITER
  3278 3BBA AC E9 47			ldy NUMROWS
  3279 3BBD 88				dey
  3280 3BBE 8C C2 3B			sty @FORTMP_0AB8_0
  3281
  3282 3BC1			l_0ABB
  3283 				; --- ForToDoCondition
  3284 3BC1 A9 00			lda @FORTMP_0AB8_0:#$00
  3285 3BC3 CD 0B 48			cmp ROWITER
  3286 3BC6 B0 03 4C D6 3C		jcc l_0AC9
  3287
  3288 				; optimize OK (heatmap.pas), line = 458
  3289
  3290 3BCB A9 00			lda #$00
  3291 3BCD 8D 0C 48			sta COLITER
  3292 3BD0 AC ED 47			ldy NUMCOLS
  3293 3BD3 88				dey
  3294 3BD4 8C D8 3B			sty @FORTMP_0AD3_0
  3295
  3296 3BD7			l_0AD6
  3297 				; --- ForToDoCondition
  3298 3BD7 A9 00			lda @FORTMP_0AD3_0:#$00
  3299 3BD9 CD 0C 48			cmp COLITER
  3300 3BDC B0 03 4C C5 3C		jcc l_0AE4
  3301
  3302 				; optimize OK (heatmap.pas), line = 460
  3303
  3304 3BE1 A9 A4			lda #$A4
  3305 3BE3 85 8C			sta :ecx
  3306 3BE5 AD 0B 48			lda ROWITER
  3307 3BE8 85 84			sta :eax
  3308 					.ifdef fmulinit
  3309 					fmulu_8
  3310 					els
  3311 3BEA 20 78 26			imulCL
  3312 					eif
  3313 3BED A9 00			lda #$00
  3314 3BEF 85 AE			sta :STACKORIGIN+STACKWIDTH+10
  3315 3BF1 AD 0C 48			lda COLITER
  3316 3BF4 0A				asl @
  3317 3BF5 26 AE			rol :STACKORIGIN+STACKWIDTH+10
  3318 3BF7 0A				asl @
  3319 3BF8 26 AE			rol :STACKORIGIN+STACKWIDTH+10
  3320 3BFA 18 65 84			add :eax
  3321 3BFD 85 9D			sta :STACKORIGIN+9
  3322 3BFF A5 85			lda :eax+1
  3323 3C01 65 AE			adc :STACKORIGIN+STACKWIDTH+10
  3324 3C03 85 AD			sta :STACKORIGIN+STACKWIDTH+9
  3325 3C05 AD 43 3D			lda DATA
  3326 3C08 18 65 9D			add :STACKORIGIN+9
  3327 3C0B 85 82			sta :bp2
  3328 3C0D AD 44 3D			lda DATA+1
  3329 3C10 65 AD			adc :STACKORIGIN+STACKWIDTH+9
  3330 3C12 85 83			sta :bp2+1
  3331 3C14 A0 00			ldy #$00
  3332 3C16 B1 82			lda (:bp2),y
  3333 3C18 85 9D			sta :STACKORIGIN+9
  3334 3C1A C8				iny
  3335 3C1B B1 82			lda (:bp2),y
  3336 3C1D 85 AD			sta :STACKORIGIN+STACKWIDTH+9
  3337 3C1F C8				iny
  3338 3C20 A5 9D			lda :STACKORIGIN+9
  3339 3C22 18 69 00			add #$00
  3340 3C25 A8				tay
  3341 3C26 A5 AD			lda :STACKORIGIN+STACKWIDTH+9
  3342 3C28 69 00			adc #$00
  3343 3C2A 85 AD			sta :STACKORIGIN+STACKWIDTH+9
  3344 3C2C B9 57 62			lda adr.COLORSTAB,y
  3345 3C2F 20 B6 2D			jsr GRAPH.SETCOLOR
  3346
  3347 				; optimize OK (heatmap.pas), line = 461
  3348
  3349 3C32 AD 0C 48			lda COLITER
  3350 3C35 18 6D 11 48			add XMARGIN
  3351 3C39 8D D2 42			sta GRAPH.PUTPIXEL_0521.X
  3352 3C3C A9 00			lda #$00
  3353 3C3E 69 00			adc #$00
  3354 3C40 8D D3 42			sta GRAPH.PUTPIXEL_0521.X+1
  3355 3C43 AD 12 48			lda YMARGIN
  3356 3C46 8D D4 42			sta GRAPH.PUTPIXEL_0521.Y
  3357 3C49 A9 00			lda #$00
  3358 3C4B 8D D5 42			sta GRAPH.PUTPIXEL_0521.Y+1
  3359 3C4E 20 C0 2D			jsr GRAPH.PUTPIXEL_0521
  3360
  3361 				; optimize OK (heatmap.pas), line = 462
  3362
  3363 3C51 AD 12 48			lda YMARGIN
  3364 3C54 18 69 01			add #$01
  3365 3C57 8D D4 42			sta GRAPH.PUTPIXEL_0521.Y
  3366 3C5A A9 00			lda #$00
  3367 3C5C 69 00			adc #$00
  3368 3C5E 8D D5 42			sta GRAPH.PUTPIXEL_0521.Y+1
  3369 3C61 AD 0C 48			lda COLITER
  3370 3C64 18 6D 11 48			add XMARGIN
  3371 3C68 8D D2 42			sta GRAPH.PUTPIXEL_0521.X
  3372 3C6B A9 00			lda #$00
  3373 3C6D 69 00			adc #$00
  3374 3C6F 8D D3 42			sta GRAPH.PUTPIXEL_0521.X+1
  3375 3C72 20 C0 2D			jsr GRAPH.PUTPIXEL_0521
  3376
  3377 				; optimize OK (heatmap.pas), line = 463
  3378
  3379 3C75 AD 12 48			lda YMARGIN
  3380 3C78 18 69 02			add #$02
  3381 3C7B 8D D4 42			sta GRAPH.PUTPIXEL_0521.Y
  3382 3C7E A9 00			lda #$00
  3383 3C80 69 00			adc #$00
  3384 3C82 8D D5 42			sta GRAPH.PUTPIXEL_0521.Y+1
  3385 3C85 AD 0C 48			lda COLITER
  3386 3C88 18 6D 11 48			add XMARGIN
  3387 3C8C 8D D2 42			sta GRAPH.PUTPIXEL_0521.X
  3388 3C8F A9 00			lda #$00
  3389 3C91 69 00			adc #$00
  3390 3C93 8D D3 42			sta GRAPH.PUTPIXEL_0521.X+1
  3391 3C96 20 C0 2D			jsr GRAPH.PUTPIXEL_0521
  3392
  3393 				; optimize OK (heatmap.pas), line = 464
  3394
  3395 3C99 AD 12 48			lda YMARGIN
  3396 3C9C 18 69 03			add #$03
  3397 3C9F 8D D4 42			sta GRAPH.PUTPIXEL_0521.Y
  3398 3CA2 A9 00			lda #$00
  3399 3CA4 69 00			adc #$00
  3400 3CA6 8D D5 42			sta GRAPH.PUTPIXEL_0521.Y+1
  3401 3CA9 AD 0C 48			lda COLITER
  3402 3CAC 18 6D 11 48			add XMARGIN
  3403 3CB0 8D D2 42			sta GRAPH.PUTPIXEL_0521.X
  3404 3CB3 A9 00			lda #$00
  3405 3CB5 69 00			adc #$00
  3406 3CB7 8D D3 42			sta GRAPH.PUTPIXEL_0521.X+1
  3407 3CBA 20 C0 2D			jsr GRAPH.PUTPIXEL_0521
  3408
  3409 				; --- ForToDoEpilog
  3410 3CBD EE 0C 48			inc COLITER
  3411 3CC0 F0 03 4C D7 3B		jne l_0AD6
  3412 3CC5			l_0AE4
  3413
  3414 				; optimize OK (heatmap.pas), line = 468
  3415
  3416 3CC5 AD 12 48			lda YMARGIN
  3417 3CC8 18 69 04			add #$04
  3418 3CCB 8D 12 48			sta YMARGIN
  3419
  3420 				; --- ForToDoEpilog
  3421 3CCE EE 0B 48			inc ROWITER
  3422 3CD1 F0 03 4C C1 3B		jne l_0ABB
  3423 3CD6			l_0AC9
  3424
  3425 				; --- RepeatUntilProlog
  3426 3CD6			l_0B4B
  3427
  3428 				; optimize FAIL ('CRT.KEYPRESSED', heatmap.pas), line = 473
  3429
  3430 3CD6 20 04 2B			jsr CRT.KEYPRESSED
  3431 3CD9 AD 60 3E			lda CRT.KEYPRESSED.RESULT
  3432 3CDC F0 F8			jeq l_0B4B
  3433
  3434 				; optimize FAIL ('CLEARKEYS', heatmap.pas), line = 475
  3435
  3436 3CDE 20 03 2E			jsr CLEARKEYS
  3437 3CE1 A9 01			lda #$01
  3438 3CE3 8D 5A 3D			sta SYSTEM.PAUSE_03DD.N
  3439 3CE6 A9 00			lda #$00
  3440 3CE8 8D 5B 3D			sta SYSTEM.PAUSE_03DD.N+1
  3441 3CEB 20 8D 2A			jsr SYSTEM.PAUSE_03DD
  3442
  3443 				; ------------------------------------------------------------
  3444
  3445 3CEE			@exit
  3446 					.ifdef @new
  3447 					lda <@VarData
  3448 					sta :ztmp
  3449 					lda >@VarData
  3450 					ldy #@VarDataSize-1
  3451 					jmp @FreeMem
  3452 					els
  3453 3CEE 60				rts						; ret
  3454 					eif
  3455 				.endl
  3456 3CEF			l_037A
  3457
  3458 				; optimize FAIL ('@print', heatmap.pas), line = 482
  3459
  3460 3CEF 20 1E 29			@printEOL
  3461
  3462 				; optimize FAIL ('@print', heatmap.pas), line = 483
  3463
  3464 					@printSTRING #CODEORIGIN+$0337
  3464 				 LDY> CODEORIGIN+$0337\ LDA< CODEORIGIN+$0337\ JSR @PRINTSTRING
  3464 3CF2 A0 23		 LDY> CODEORIGIN+$0337
  3464 3CF4 A9 37		 LDA< CODEORIGIN+$0337
  3464 3CF6 20 2C 29		 JSR @PRINTSTRING
  3465 3CF9 20 1E 29			@printEOL
  3466
  3467 				; optimize FAIL ('@print', heatmap.pas), line = 484
  3468
  3469 					@printSTRING #CODEORIGIN+$035A
  3469 				 LDY> CODEORIGIN+$035A\ LDA< CODEORIGIN+$035A\ JSR @PRINTSTRING
  3469 3CFC A0 23		 LDY> CODEORIGIN+$035A
  3469 3CFE A9 5A		 LDA< CODEORIGIN+$035A
  3469 3D00 20 2C 29		 JSR @PRINTSTRING
  3470 3D03 20 1E 29			@printEOL
  3471
  3472 				; optimize FAIL ('@print', heatmap.pas), line = 485
  3473
  3474 3D06 20 1E 29			@printEOL
  3475
  3476 				; --- RepeatUntilProlog
  3477 3D09			l_0B5B
  3478
  3479 				; optimize FAIL ('OPENFILE', heatmap.pas), line = 489
  3480
  3481 3D09 20 B7 2F			jsr OPENFILE
  3482
  3483 				; optimize FAIL ('PARSETABLE', heatmap.pas), line = 490
  3484
  3485 3D0C 20 51 31			jsr PARSETABLE
  3486
  3487 				; optimize FAIL ('CALCULATEHEATMAP', heatmap.pas), line = 491
  3488
  3489 3D0F 20 F0 36			jsr CALCULATEHEATMAP
  3490
  3491 				; optimize FAIL ('DISPLAYHEATMAP', heatmap.pas), line = 492
  3492
  3493 3D12 20 2C 3B			jsr DISPLAYHEATMAP
  3494
  3495 				; optimize OK (heatmap.pas), line = 494
  3496
  3497 3D15 AD 68 62			lda USEREXITS
  3498 3D18 F0 EF			jeq l_0B5B
  3499 3D1A A9 00			lda #$00
  3500 3D1C 4C 1F 3D			jmp @halt
  3501
  3502 				; ------------------------------------------------------------
  3503
  3504 = 8000			RECORD_BUFFER	= $8000
  3505 = 9000			TEXT_BUFFER	= $9000
  3506 = 42D6			CODE	= DATAORIGIN+$058E
  3507 = 42D7			adr.REC	= [DATAORIGIN+$058F] .array [256]
  3508 3D1F			.var REC	= adr.REC .word
  3509 = 43D7			FREECHANNEL	= DATAORIGIN+$068F
  3510 = 43D8			adr.FILENAME	= [DATAORIGIN+$0690] .array [17]
  3511 3D1F			.var FILENAME	= adr.FILENAME .word
  3512 = 43E9			adr.TABLECOMMENT	= [DATAORIGIN+$06A1] .array [256]
  3513 3D1F			.var TABLECOMMENT	= adr.TABLECOMMENT .word
  3514 = 44E9			adr.COLCOMMENT	= [DATAORIGIN+$07A1] .array [256]
  3515 3D1F			.var COLCOMMENT	= adr.COLCOMMENT .word
  3516 = 45E9			adr.ROWCOMMENT	= [DATAORIGIN+$08A1] .array [256]
  3517 3D1F			.var ROWCOMMENT	= adr.ROWCOMMENT .word
  3518 = 46E9			adr.DATACOMMENT	= [DATAORIGIN+$09A1] .array [256]
  3519 3D1F			.var DATACOMMENT	= adr.DATACOMMENT .word
  3520 = 47E9			NUMROWS	= DATAORIGIN+$0AA1
  3521 = 47ED			NUMCOLS	= DATAORIGIN+$0AA5
  3522 = 47F1			COMMAPOS	= DATAORIGIN+$0AA9
  3523 = 47F2			adr.VALUESTRING	= [DATAORIGIN+$0AAA] .array [11]
  3524 3D1F			.var VALUESTRING	= adr.VALUESTRING .word
  3525 = 47FD			DATASIZE	= DATAORIGIN+$0AB5
  3526 = 47FF			RECORDCOUNTER	= DATAORIGIN+$0AB7
  3527 = 4801			RECORDSSKIPPED	= DATAORIGIN+$0AB9
  3528 = 4803			DATAMAX	= DATAORIGIN+$0ABB
  3529 = 4807			DATAMIN	= DATAORIGIN+$0ABF
  3530 = 480B			ROWITER	= DATAORIGIN+$0AC3
  3531 = 480C			COLITER	= DATAORIGIN+$0AC4
  3532 = 480D			INPUTRANGE	= DATAORIGIN+$0AC5
  3533 = 4811			XMARGIN	= DATAORIGIN+$0AC9
  3534 = 4812			YMARGIN	= DATAORIGIN+$0ACA
  3535 = 4813			adr.DATA	= [DATAORIGIN+$0ACB] .array [41] [41] .dword
  3536 3D1F			.var DATA	= adr.DATA .word
  3537 = 6257			adr.COLORSTAB	= [DATAORIGIN+$250F] .array [15]
  3538 3D1F			.var COLORSTAB	= adr.COLORSTAB .word
  3539 = 02FC			CH	= $02FC
  3540 = 6266			KEY	= DATAORIGIN+$251E
  3541 = 6267			CIORESULT	= DATAORIGIN+$251F
  3542 = 6268			USEREXITS	= DATAORIGIN+$2520
  3543 3D1F			@exit
  3544
  3545 3D1F A2 00		@halt	ldx #$00
  3546 3D21 9A				txs
  3547 					.ifdef MAIN.@DEFINES.ROMOFF
  3548 					inc portb
  3549 					.fi
  3550
  3551 3D22 A0 01			ldy #$01
  3552
  3553 3D24 60				rts
  3554
  3555 				; ------------------------------------------------------------
  3556
  3557 3D25 00 00 00 00 00 00 + IOCB@COPY	:16 brk
  3558
  3559 				; ------------------------------------------------------------
  3560
  3561 3D35			.local	@DEFINES
  3562 3D35			ATARI
  3563 				.endl
  3564
  3565 3D35			.local	@RESOURCE
  3566 				.endl
  3567
  3568 = 3D35 D7 42		REC
  3568 = 3D37 D8 43		FILENAME
  3568 = 3D39 E9 43		TABLECOMMENT
  3568 = 3D3B E9 44		COLCOMMENT
  3568 = 3D3D E9 45		ROWCOMMENT
  3568 = 3D3F E9 46		DATACOMMENT
  3568 = 3D41 F2 47		VALUESTRING
  3568 = 3D43 13 48		DATA
  3568 = 3D45 57 62		COLORSTAB
  3568 				.endl							; MAIN
  3569
  3570 				; ------------------------------------------------------------
  3571 				; ------------------------------------------------------------
  3572
  3573 				.macro	UNITINITIALIZATION
  3574 				
  3575 					.ifdef MAIN.SYSTEM.@UnitInit
  3576 					jsr MAIN.SYSTEM.@UnitInit
  3577 					.fi
  3578 				
  3579 					.ifdef MAIN.ATARI.@UnitInit
  3580 					jsr MAIN.ATARI.@UnitInit
  3581 					.fi
  3582 				
  3583 					.ifdef MAIN.CRT.@UnitInit
  3584 					jsr MAIN.CRT.@UnitInit
  3585 					.fi
  3586 				
  3587 					.ifdef MAIN.CIO.@UnitInit
  3588 					jsr MAIN.CIO.@UnitInit
  3589 					.fi
  3590 				
  3591 					.ifdef MAIN.STRINGUTILS.@UnitInit
  3592 					jsr MAIN.STRINGUTILS.@UnitInit
  3593 					.fi
  3594 				
  3595 					.ifdef MAIN.TYPES.@UnitInit
  3596 					jsr MAIN.TYPES.@UnitInit
  3597 					.fi
  3598 				
  3599 					.ifdef MAIN.GRAPH.@UnitInit
  3600 					jsr MAIN.GRAPH.@UnitInit
  3601 					.fi
  3602 				
  3603 					.ifdef MAIN.DOS.@UnitInit
  3604 					jsr MAIN.DOS.@UnitInit
  3605 					.fi
  3606 				
  3607 					.ifdef MAIN.STRUTILS.@UnitInit
  3608 					jsr MAIN.STRUTILS.@UnitInit
  3609 					.fi
  3610 				
  3611 					.ifdef MAIN.SYSUTILS.@UnitInit
  3612 					jsr MAIN.SYSUTILS.@UnitInit
  3613 					.fi
  3614 				.endm
  3615
  3616 				; ------------------------------------------------------------
  3617
  3618 					ift .SIZEOF(MAIN.SYSTEM) > 0
  3619 					.print 'SYSTEM: ',MAIN.SYSTEM,'..',MAIN.SYSTEM+.SIZEOF(MAIN.SYSTEM)-1
  3619 				SYSTEM: $2A37..$2AE3
  3620 					eif
  3621
  3622 					ift .SIZEOF(MAIN.ATARI) > 0
  3623 					.print 'ATARI: ',MAIN.ATARI,'..',MAIN.ATARI+.SIZEOF(MAIN.ATARI)-1
  3624 					eif
  3625
  3626 					ift .SIZEOF(MAIN.CRT) > 0
  3627 					.print 'CRT: ',MAIN.CRT,'..',MAIN.CRT+.SIZEOF(MAIN.CRT)-1
  3627 				CRT: $2AE4..$2B11
  3628 					eif
  3629
  3630 					ift .SIZEOF(MAIN.CIO) > 0
  3631 					.print 'CIO: ',MAIN.CIO,'..',MAIN.CIO+.SIZEOF(MAIN.CIO)-1
  3631 				CIO: $2B12..$2C54
  3632 					eif
  3633
  3634 					ift .SIZEOF(MAIN.STRINGUTILS) > 0
  3635 					.print 'STRINGUTILS: ',MAIN.STRINGUTILS,'..',MAIN.STRINGUTILS+.SIZEOF(MAIN.STRINGUTILS)-1
  3635 				STRINGUTILS: $2C55..$2D63
  3636 					eif
  3637
  3638 					ift .SIZEOF(MAIN.TYPES) > 0
  3639 					.print 'TYPES: ',MAIN.TYPES,'..',MAIN.TYPES+.SIZEOF(MAIN.TYPES)-1
  3640 					eif
  3641
  3642 					ift .SIZEOF(MAIN.GRAPH) > 0
  3643 					.print 'GRAPH: ',MAIN.GRAPH,'..',MAIN.GRAPH+.SIZEOF(MAIN.GRAPH)-1
  3643 				GRAPH: $2D64..$2E02
  3644 					eif
  3645
  3646 					ift .SIZEOF(MAIN.DOS) > 0
  3647 					.print 'DOS: ',MAIN.DOS,'..',MAIN.DOS+.SIZEOF(MAIN.DOS)-1
  3648 					eif
  3649
  3650 					ift .SIZEOF(MAIN.STRUTILS) > 0
  3651 					.print 'STRUTILS: ',MAIN.STRUTILS,'..',MAIN.STRUTILS+.SIZEOF(MAIN.STRUTILS)-1
  3652 					eif
  3653
  3654 					ift .SIZEOF(MAIN.SYSUTILS) > 0
  3655 					.print 'SYSUTILS: ',MAIN.SYSUTILS,'..',MAIN.SYSUTILS+.SIZEOF(MAIN.SYSUTILS)-1
  3656 					eif
  3657
  3658 					.print 'CODE: ',CODEORIGIN,'..',MAIN.@RESOURCE-1
  3658 				CODE: $2000..$3D34
  3659
  3660 				; ------------------------------------------------------------
  3661
  3662 3D47				.align $0004
  3663
  3664 3D48			DATAORIGIN
  3665 3D48-6265> 28 00 18 00 + .by  $28 $00 $18 $00 $2D $0C $00 $00  $00 $00 $00 $00 $00 $00 $00 $00  $00 $00 $00 $00 $00 $00 $00 $00
  3666 3D60 00 00 00 00 00 00 + .by  $00 $00 $00 $00 $00 $00 $00 $00  $00 $00 $00 $00 $00 $00 $00 $00  $00 $00 $00 $00 $00 $00 $00 $00
  3667 3D78 00 00 00 00 00 00 + .by  $00 $00 $00 $00 $00 $00 $00 $00  $00 $00 $00 $00 $00 $00 $00 $00  $00 $00 $00 $00 $00 $00 $00 $00
  3668 3D90 00 00 00 00 00 00 + .by  $00 $00 $00 $00 $00 $00 $00 $00  $00 $00 $00 $00 $00 $00 $00 $00  $00 $00 $00 $00 $00 $00 $00 $00
  3669 3DA8 00 00 00 00 00 00 + .by  $00 $00 $00 $00 $00 $00 $00 $00  $00 $00 $00 $00 $00 $00 $00 $00  $00 $00 $00 $00 $00 $00 $00 $00
  3670 3DC0 00 00 00 00 00 00 + .by  $00 $00 $00 $00 $00 $00 $00 $00  $00 $00 $00 $00 $00 $00 $00 $00  $00 $00 $00 $00 $00 $00 $00 $00
  3671 3DD8 00 00 00 00 00 00 + .by  $00 $00 $00 $00 $00 $00 $00 $00  $00 $00 $00 $00 $00 $00 $00 $00  $00 $00 $00 $00 $00 $00 $00 $00
  3672 3DF0 00 00 00 00 00 00 + .by  $00 $00 $00 $00 $00 $00 $00 $00  $00 $00 $00 $00 $00 $00 $00 $00  $00 $00 $00 $00 $00 $00 $00 $00
  3673 3E08 00 00 00 00 00 00 + .by  $00 $00 $00 $00 $00 $00 $00 $00  $00 $00 $00 $00 $00 $00 $00 $00  $00 $00 $00 $00 $00 $00 $00 $00
  3674 3E20 00 00 00 00 00 00 + .by  $00 $00 $00 $00 $00 $00 $00 $00  $00 $00 $00 $00 $00 $00 $00 $00  $00 $00 $00 $00 $00 $00 $00 $00
  3675 3E38 00 00 00 00 00 00 + .by  $00 $00 $00 $00 $00 $00 $00 $00  $00 $00 $00 $00 $00 $00 $00 $00  $00 $00 $00 $00 $00 $00 $00 $00
  3676 3E50 00 00 00 00 00 00 + .by  $00 $00 $00 $00 $00 $00 $00 $00  $00 $00 $00 $00 $00 $00 $00 $00  $00 $00 $00 $00 $00 $00 $00 $00
  3677 3E68 00 00 00 00 00 00 + .by  $00 $00 $00 $00 $00 $00 $00 $00  $00 $00 $00 $00 $00 $00 $00 $00  $00 $00 $00 $00 $00 $00 $00 $00
  3678 3E80 00 00 00 00 00 00 + .by  $00 $00 $00 $00 $00 $00 $00 $00  $00 $00 $00 $00 $00 $00 $00 $00  $00 $00 $00 $00 $00 $00 $00 $00
  3679 3E98 00 00 00 00 00 00 + .by  $00 $00 $00 $00 $00 $00 $00 $00  $00 $00 $00 $00 $00 $00 $00 $00  $00 $00 $00 $00 $00 $00 $00 $00
  3680 3EB0 00 00 00 00 00 00 + .by  $00 $00 $00 $00 $00 $00 $00 $00  $00 $00 $00 $00 $00 $00 $00 $00  $00 $00 $00 $00 $00 $00 $00 $00
  3681 3EC8 00 00 00 00 00 00 + .by  $00 $00 $00 $00 $00 $00 $00 $00  $00 $00 $00 $00 $00 $00 $00 $00  $00 $00 $00 $00 $00 $00 $00 $00
  3682 3EE0 00 00 00 00 00 00 + .by  $00 $00 $00 $00 $00 $00 $00 $00  $00 $00 $00 $00 $00 $00 $00 $00  $00 $00 $00 $00 $00 $00 $00 $00
  3683 3EF8 00 00 00 00 00 00 + .by  $00 $00 $00 $00 $00 $00 $00 $00  $00 $00 $00 $00 $00 $00 $00 $00  $00 $00 $00 $00 $00 $00 $00 $00
  3684 3F10 00 00 00 00 00 00 + .by  $00 $00 $00 $00 $00 $00 $00 $00  $00 $00 $00 $00 $00 $00 $00 $00  $00 $00 $00 $00 $00 $00 $00 $00
  3685 3F28 00 00 00 00 00 00 + .by  $00 $00 $00 $00 $00 $00 $00 $00  $00 $00 $00 $00 $00 $00 $00 $00  $00 $00 $00 $00 $00 $00 $00 $00
  3686 3F40 00 00 00 00 00 00 + .by  $00 $00 $00 $00 $00 $00 $00 $00  $00 $00 $00 $00 $00 $00 $00 $00  $00 $00 $00 $00 $00 $00 $00 $00
  3687 3F58 00 00 00 00 00 00 + .by  $00 $00 $00 $00 $00 $00 $00 $00  $00 $00 $00 $00 $00 $00 $00 $00  $00 $00 $00 $00 $00 $00 $00 $00
  3688 3F70 00 00 00 00 00 00 + .by  $00 $00 $00 $00 $00 $00 $00 $00  $00 $00 $00 $00 $00 $00 $00 $00  $00 $00 $00 $00 $00 $00 $00 $00
  3689 3F88 00 00 00 00 00 00 + .by  $00 $00 $00 $00 $00 $00 $00 $00  $00 $00 $00 $00 $00 $00 $00 $00  $00 $00 $00 $00 $00 $00 $00 $00
  3690 3FA0 00 00 00 00 00 00 + .by  $00 $00 $00 $00 $00 $00 $00 $00  $00 $00 $00 $00 $00 $00 $00 $00  $00 $00 $00 $00 $00 $00 $00 $00
  3691 3FB8 00 00 00 00 00 00 + .by  $00 $00 $00 $00 $00 $00 $00 $00  $00 $00 $00 $00 $00 $00 $00 $00  $00 $00 $00 $00 $00 $00 $00 $00
  3692 3FD0 00 00 00 00 00 00 + .by  $00 $00 $00 $00 $00 $00 $00 $00  $00 $00 $00 $00 $00 $00 $00 $00  $00 $00 $00 $00 $00 $00 $00 $00
  3693 3FE8 00 00 00 00 00 00 + .by  $00 $00 $00 $00 $00 $00 $00 $00  $00 $00 $00 $00 $00 $00 $00 $00  $00 $00 $00 $00 $00 $00 $00 $00
  3694 4000 00 00 00 00 00 00 + .by  $00 $00 $00 $00 $00 $00 $00 $00  $00 $00 $00 $00 $00 $00 $00 $00  $00 $00 $00 $00 $00 $00 $00 $00
  3695 4018 00 00 00 00 00 00 + .by  $00 $00 $00 $00 $00 $00 $00 $00  $00 $00 $00 $00 $00 $00 $00 $00  $00 $00 $00 $00 $00 $00 $00 $00
  3696 4030 00 00 00 00 00 00 + .by  $00 $00 $00 $00 $00 $00 $00 $00  $00 $00 $00 $00 $00 $00 $00 $00  $00 $00 $00 $00 $00 $00 $00 $00
  3697 4048 00 00 00 00 00 00 + .by  $00 $00 $00 $00 $00 $00 $00 $00  $00 $00 $00 $00 $00 $00 $00 $00  $00 $00 $00 $00 $00 $00 $00 $00
  3698 4060 00 00 00 00 00 00 + .by  $00 $00 $00 $00 $00 $00 $00 $00  $00 $00 $00 $00 $00 $00 $00 $00  $00 $00 $00 $00 $00 $00 $00 $00
  3699 4078 00 00 00 00 00 00 + .by  $00 $00 $00 $00 $00 $00 $00 $00  $00 $00 $00 $00 $00 $00 $00 $00  $00 $00 $00 $00 $00 $00 $00 $00
  3700 4090 00 00 00 00 00 00 + .by  $00 $00 $00 $00 $00 $00 $00 $00  $00 $00 $00 $00 $00 $00 $00 $00  $00 $00 $00 $00 $00 $00 $00 $00
  3701 40A8 00 00 00 00 00 00 + .by  $00 $00 $00 $00 $00 $00 $00 $00  $00 $00 $00 $00 $00 $00 $00 $00  $00 $00 $00 $00 $00 $00 $00 $00
  3702 40C0 00 00 00 00 00 00 + .by  $00 $00 $00 $00 $00 $00 $00 $00  $00 $00 $00 $00 $00 $00 $00 $00  $00 $00 $00 $00 $00 $00 $00 $00
  3703 40D8 00 00 00 00 00 00 + .by  $00 $00 $00 $00 $00 $00 $00 $00  $00 $00 $00 $00 $00 $00 $00 $00  $00 $00 $00 $00 $00 $00 $00 $00
  3704 40F0 00 00 00 00 00 00 + .by  $00 $00 $00 $00 $00 $00 $00 $00  $00 $00 $00 $00 $00 $00 $00 $00  $00 $00 $00 $00 $00 $00 $00 $00
  3705 4108 00 00 00 00 00 00 + .by  $00 $00 $00 $00 $00 $00 $00 $00  $00 $00 $00 $00 $00 $00 $00 $00  $00 $00 $00 $00 $00 $00 $00 $00
  3706 4120 00 00 00 00 00 00 + .by  $00 $00 $00 $00 $00 $00 $00 $00  $00 $00 $00 $00 $00 $00 $00 $00  $00 $00 $00 $00 $00 $00 $00 $00
  3707 4138 00 00 00 00 00 00 + .by  $00 $00 $00 $00 $00 $00 $00 $00  $00 $00 $00 $00 $00 $00 $00 $00  $00 $00 $00 $00 $00 $00 $00 $00
  3708 4150 00 00 00 00 00 00 + .by  $00 $00 $00 $00 $00 $00 $00 $00  $00 $00 $00 $00 $00 $00 $00 $00  $00 $00 $00 $00 $00 $00 $00 $00
  3709 4168 00 00 00 00 00 00 + .by  $00 $00 $00 $00 $00 $00 $00 $00  $00 $00 $00 $00 $00 $00 $00 $00  $00 $00 $00 $00 $00 $00 $00 $00
  3710 4180 00 00 00 00 00 00 + .by  $00 $00 $00 $00 $00 $00 $00 $00  $00 $00 $00 $00 $00 $00 $00 $00  $00 $00 $00 $00 $00 $00 $00 $00
  3711 4198 00 00 00 00 00 00 + .by  $00 $00 $00 $00 $00 $00 $00 $00  $00 $00 $00 $00 $00 $00 $00 $00  $00 $00 $00 $00 $00 $00 $00 $00
  3712 41B0 00 00 00 00 00 00 + .by  $00 $00 $00 $00 $00 $00 $00 $00  $00 $00 $00 $00 $00 $00 $00 $00  $00 $00 $00 $00 $00 $00 $00 $00
  3713 41C8 00 00 00 00 00 00 + .by  $00 $00 $00 $00 $00 $00 $00 $00  $00 $00 $00 $00 $00 $00 $00 $00  $00 $00 $00 $00 $00 $00 $00 $00
  3714 41E0 00 00 00 00 00 00 + .by  $00 $00 $00 $00 $00 $00 $00 $00  $00 $00 $00 $00 $00 $00 $00 $00  $00 $00 $00 $00 $00 $00 $00 $00
  3715 41F8 00 00 00 00 00 00 + .by  $00 $00 $00 $00 $00 $00 $00 $00  $00 $00 $00 $00 $00 $00 $00 $00  $00 $00 $00 $00 $00 $00 $00 $00
  3716 4210 00 00 00 00 00 00 + .by  $00 $00 $00 $00 $00 $00 $00 $00  $00 $00 $00 $00 $00 $00 $00 $00  $00 $00 $00 $00 $00 $00 $00 $00
  3717 4228 00 00 00 00 00 00 + .by  $00 $00 $00 $00 $00 $00 $00 $00  $00 $00 $00 $00 $00 $00 $00 $00  $00 $00 $00 $00 $00 $00 $00 $00
  3718 4240 00 00 00 00 00 00 + .by  $00 $00 $00 $00 $00 $00 $00 $00  $00 $00 $00 $00 $00 $00 $00 $00  $00 $00 $00 $00 $00 $00 $00 $00
  3719 4258 00 00 00 00 00 00 + .by  $00 $00 $00 $00 $00 $00 $00 $00  $00 $00 $00 $00 $00 $00 $00 $00  $00 $00 $00 $00 $00 $00 $00 $00
  3720 4270 00 00 00 00 00 00 + .by  $00 $00 $00 $00 $00 $00 $00 $00  $00 $00 $00 $00 $00 $00 $00 $00  $00 $00 $00 $00 $00 $00 $00 $00
  3721 4288 00 00 00 00 00 00 + .by  $00 $00 $00 $00 $00 $00 $00 $00  $00 $00 $00 $00 $00 $00 $00 $00  $00 $00 $00 $00 $00 $00 $00 $00
  3722 42A0 00 00 00 00 00 00 + .by  $00 $00 $00 $00 $00 $00 $00 $00  $00 $00 $00 $00 $00 $00 $00 $00  $00 $00 $00 $00 $00 $27 $00 $00
  3723 42B8 00 17 00 00 00 00 + .by  $00 $17 $00 $00 $00 $00 $00 $00  $00 $00 $00 $00 $00 $00 $00 $00  $00 $00 $00 $00 $00 $00 $00 $00
  3724 42D0 00 00 00 00 00 00 + .by  $00 $00 $00 $00 $00 $00 $00 $00  $00 $00 $00 $00 $00 $00 $00 $00  $00 $00 $00 $00 $00 $00 $00 $00
  3725 42E8 00 00 00 00 00 00 + .by  $00 $00 $00 $00 $00 $00 $00 $00  $00 $00 $00 $00 $00 $00 $00 $00  $00 $00 $00 $00 $00 $00 $00 $00
  3726 4300 00 00 00 00 00 00 + .by  $00 $00 $00 $00 $00 $00 $00 $00  $00 $00 $00 $00 $00 $00 $00 $00  $00 $00 $00 $00 $00 $00 $00 $00
  3727 4318 00 00 00 00 00 00 + .by  $00 $00 $00 $00 $00 $00 $00 $00  $00 $00 $00 $00 $00 $00 $00 $00  $00 $00 $00 $00 $00 $00 $00 $00
  3728 4330 00 00 00 00 00 00 + .by  $00 $00 $00 $00 $00 $00 $00 $00  $00 $00 $00 $00 $00 $00 $00 $00  $00 $00 $00 $00 $00 $00 $00 $00
  3729 4348 00 00 00 00 00 00 + .by  $00 $00 $00 $00 $00 $00 $00 $00  $00 $00 $00 $00 $00 $00 $00 $00  $00 $00 $00 $00 $00 $00 $00 $00
  3730 4360 00 00 00 00 00 00 + .by  $00 $00 $00 $00 $00 $00 $00 $00  $00 $00 $00 $00 $00 $00 $00 $00  $00 $00 $00 $00 $00 $00 $00 $00
  3731 4378 00 00 00 00 00 00 + .by  $00 $00 $00 $00 $00 $00 $00 $00  $00 $00 $00 $00 $00 $00 $00 $00  $00 $00 $00 $00 $00 $00 $00 $00
  3732 4390 00 00 00 00 00 00 + .by  $00 $00 $00 $00 $00 $00 $00 $00  $00 $00 $00 $00 $00 $00 $00 $00  $00 $00 $00 $00 $00 $00 $00 $00
  3733 43A8 00 00 00 00 00 00 + .by  $00 $00 $00 $00 $00 $00 $00 $00  $00 $00 $00 $00 $00 $00 $00 $00  $00 $00 $00 $00 $00 $00 $00 $00
  3734 43C0 00 00 00 00 00 00 + .by  $00 $00 $00 $00 $00 $00 $00 $00  $00 $00 $00 $00 $00 $00 $00 $00  $00 $00 $00 $00 $00 $00 $00 $00
  3735 43D8 00 00 00 00 00 00 + .by  $00 $00 $00 $00 $00 $00 $00 $00  $00 $00 $00 $00 $00 $00 $00 $00  $00 $00 $00 $00 $00 $00 $00 $00
  3736 43F0 00 00 00 00 00 00 + .by  $00 $00 $00 $00 $00 $00 $00 $00  $00 $00 $00 $00 $00 $00 $00 $00  $00 $00 $00 $00 $00 $00 $00 $00
  3737 4408 00 00 00 00 00 00 + .by  $00 $00 $00 $00 $00 $00 $00 $00  $00 $00 $00 $00 $00 $00 $00 $00  $00 $00 $00 $00 $00 $00 $00 $00
  3738 4420 00 00 00 00 00 00 + .by  $00 $00 $00 $00 $00 $00 $00 $00  $00 $00 $00 $00 $00 $00 $00 $00  $00 $00 $00 $00 $00 $00 $00 $00
  3739 4438 00 00 00 00 00 00 + .by  $00 $00 $00 $00 $00 $00 $00 $00  $00 $00 $00 $00 $00 $00 $00 $00  $00 $00 $00 $00 $00 $00 $00 $00
  3740 4450 00 00 00 00 00 00 + .by  $00 $00 $00 $00 $00 $00 $00 $00  $00 $00 $00 $00 $00 $00 $00 $00  $00 $00 $00 $00 $00 $00 $00 $00
  3741 4468 00 00 00 00 00 00 + .by  $00 $00 $00 $00 $00 $00 $00 $00  $00 $00 $00 $00 $00 $00 $00 $00  $00 $00 $00 $00 $00 $00 $00 $00
  3742 4480 00 00 00 00 00 00 + .by  $00 $00 $00 $00 $00 $00 $00 $00  $00 $00 $00 $00 $00 $00 $00 $00  $00 $00 $00 $00 $00 $00 $00 $00
  3743 4498 00 00 00 00 00 00 + .by  $00 $00 $00 $00 $00 $00 $00 $00  $00 $00 $00 $00 $00 $00 $00 $00  $00 $00 $00 $00 $00 $00 $00 $00
  3744 44B0 00 00 00 00 00 00 + .by  $00 $00 $00 $00 $00 $00 $00 $00  $00 $00 $00 $00 $00 $00 $00 $00  $00 $00 $00 $00 $00 $00 $00 $00
  3745 44C8 00 00 00 00 00 00 + .by  $00 $00 $00 $00 $00 $00 $00 $00  $00 $00 $00 $00 $00 $00 $00 $00  $00 $00 $00 $00 $00 $00 $00 $00
  3746 44E0 00 00 00 00 00 00 + .by  $00 $00 $00 $00 $00 $00 $00 $00  $00 $00 $00 $00 $00 $00 $00 $00  $00 $00 $00 $00 $00 $00 $00 $00
  3747 44F8 00 00 00 00 00 00 + .by  $00 $00 $00 $00 $00 $00 $00 $00  $00 $00 $00 $00 $00 $00 $00 $00  $00 $00 $00 $00 $00 $00 $00 $00
  3748 4510 00 00 00 00 00 00 + .by  $00 $00 $00 $00 $00 $00 $00 $00  $00 $00 $00 $00 $00 $00 $00 $00  $00 $00 $00 $00 $00 $00 $00 $00
  3749 4528 00 00 00 00 00 00 + .by  $00 $00 $00 $00 $00 $00 $00 $00  $00 $00 $00 $00 $00 $00 $00 $00  $00 $00 $00 $00 $00 $00 $00 $00
  3750 4540 00 00 00 00 00 00 + .by  $00 $00 $00 $00 $00 $00 $00 $00  $00 $00 $00 $00 $00 $00 $00 $00  $00 $00 $00 $00 $00 $00 $00 $00
  3751 4558 00 00 00 00 00 00 + .by  $00 $00 $00 $00 $00 $00 $00 $00  $00 $00 $00 $00 $00 $00 $00 $00  $00 $00 $00 $00 $00 $00 $00 $00
  3752 4570 00 00 00 00 00 00 + .by  $00 $00 $00 $00 $00 $00 $00 $00  $00 $00 $00 $00 $00 $00 $00 $00  $00 $00 $00 $00 $00 $00 $00 $00
  3753 4588 00 00 00 00 00 00 + .by  $00 $00 $00 $00 $00 $00 $00 $00  $00 $00 $00 $00 $00 $00 $00 $00  $00 $00 $00 $00 $00 $00 $00 $00
  3754 45A0 00 00 00 00 00 00 + .by  $00 $00 $00 $00 $00 $00 $00 $00  $00 $00 $00 $00 $00 $00 $00 $00  $00 $00 $00 $00 $00 $00 $00 $00
  3755 45B8 00 00 00 00 00 00 + .by  $00 $00 $00 $00 $00 $00 $00 $00  $00 $00 $00 $00 $00 $00 $00 $00  $00 $00 $00 $00 $00 $00 $00 $00
  3756 45D0 00 00 00 00 00 00 + .by  $00 $00 $00 $00 $00 $00 $00 $00  $00 $00 $00 $00 $00 $00 $00 $00  $00 $00 $00 $00 $00 $00 $00 $00
  3757 45E8 00 00 00 00 00 00 + .by  $00 $00 $00 $00 $00 $00 $00 $00  $00 $00 $00 $00 $00 $00 $00 $00  $00 $00 $00 $00 $00 $00 $00 $00
  3758 4600 00 00 00 00 00 00 + .by  $00 $00 $00 $00 $00 $00 $00 $00  $00 $00 $00 $00 $00 $00 $00 $00  $00 $00 $00 $00 $00 $00 $00 $00
  3759 4618 00 00 00 00 00 00 + .by  $00 $00 $00 $00 $00 $00 $00 $00  $00 $00 $00 $00 $00 $00 $00 $00  $00 $00 $00 $00 $00 $00 $00 $00
  3760 4630 00 00 00 00 00 00 + .by  $00 $00 $00 $00 $00 $00 $00 $00  $00 $00 $00 $00 $00 $00 $00 $00  $00 $00 $00 $00 $00 $00 $00 $00
  3761 4648 00 00 00 00 00 00 + .by  $00 $00 $00 $00 $00 $00 $00 $00  $00 $00 $00 $00 $00 $00 $00 $00  $00 $00 $00 $00 $00 $00 $00 $00
  3762 4660 00 00 00 00 00 00 + .by  $00 $00 $00 $00 $00 $00 $00 $00  $00 $00 $00 $00 $00 $00 $00 $00  $00 $00 $00 $00 $00 $00 $00 $00
  3763 4678 00 00 00 00 00 00 + .by  $00 $00 $00 $00 $00 $00 $00 $00  $00 $00 $00 $00 $00 $00 $00 $00  $00 $00 $00 $00 $00 $00 $00 $00
  3764 4690 00 00 00 00 00 00 + .by  $00 $00 $00 $00 $00 $00 $00 $00  $00 $00 $00 $00 $00 $00 $00 $00  $00 $00 $00 $00 $00 $00 $00 $00
  3765 46A8 00 00 00 00 00 00 + .by  $00 $00 $00 $00 $00 $00 $00 $00  $00 $00 $00 $00 $00 $00 $00 $00  $00 $00 $00 $00 $00 $00 $00 $00
  3766 46C0 00 00 00 00 00 00 + .by  $00 $00 $00 $00 $00 $00 $00 $00  $00 $00 $00 $00 $00 $00 $00 $00  $00 $00 $00 $00 $00 $00 $00 $00
  3767 46D8 00 00 00 00 00 00 + .by  $00 $00 $00 $00 $00 $00 $00 $00  $00 $00 $00 $00 $00 $00 $00 $00  $00 $00 $00 $00 $00 $00 $00 $00
  3768 46F0 00 00 00 00 00 00 + .by  $00 $00 $00 $00 $00 $00 $00 $00  $00 $00 $00 $00 $00 $00 $00 $00  $00 $00 $00 $00 $00 $00 $00 $00
  3769 4708 00 00 00 00 00 00 + .by  $00 $00 $00 $00 $00 $00 $00 $00  $00 $00 $00 $00 $00 $00 $00 $00  $00 $00 $00 $00 $00 $00 $00 $00
  3770 4720 00 00 00 00 00 00 + .by  $00 $00 $00 $00 $00 $00 $00 $00  $00 $00 $00 $00 $00 $00 $00 $00  $00 $00 $00 $00 $00 $00 $00 $00
  3771 4738 00 00 00 00 00 00 + .by  $00 $00 $00 $00 $00 $00 $00 $00  $00 $00 $00 $00 $00 $00 $00 $00  $00 $00 $00 $00 $00 $00 $00 $00
  3772 4750 00 00 00 00 00 00 + .by  $00 $00 $00 $00 $00 $00 $00 $00  $00 $00 $00 $00 $00 $00 $00 $00  $00 $00 $00 $00 $00 $00 $00 $00
  3773 4768 00 00 00 00 00 00 + .by  $00 $00 $00 $00 $00 $00 $00 $00  $00 $00 $00 $00 $00 $00 $00 $00  $00 $00 $00 $00 $00 $00 $00 $00
  3774 4780 00 00 00 00 00 00 + .by  $00 $00 $00 $00 $00 $00 $00 $00  $00 $00 $00 $00 $00 $00 $00 $00  $00 $00 $00 $00 $00 $00 $00 $00
  3775 4798 00 00 00 00 00 00 + .by  $00 $00 $00 $00 $00 $00 $00 $00  $00 $00 $00 $00 $00 $00 $00 $00  $00 $00 $00 $00 $00 $00 $00 $00
  3776 47B0 00 00 00 00 00 00 + .by  $00 $00 $00 $00 $00 $00 $00 $00  $00 $00 $00 $00 $00 $00 $00 $00  $00 $00 $00 $00 $00 $00 $00 $00
  3777 47C8 00 00 00 00 00 00 + .by  $00 $00 $00 $00 $00 $00 $00 $00  $00 $00 $00 $00 $00 $00 $00 $00  $00 $00 $00 $00 $00 $00 $00 $00
  3778 47E0 00 00 00 00 00 00 + .by  $00 $00 $00 $00 $00 $00 $00 $00  $00 $00 $00 $00 $00 $00 $00 $00  $00 $00 $00 $00 $00 $00 $00 $00
  3779 47F8 00 00 00 00 00 00 + .by  $00 $00 $00 $00 $00 $00 $00 $00  $00 $00 $00 $00 $00 $00 $00 $00  $00 $00 $00 $00 $00 $00 $00 $00
  3780 4810 00 00 00 00 00 00 + .by  $00 $00 $00 $00 $00 $00 $00 $00  $00 $00 $00 $00 $00 $00 $00 $00  $00 $00 $00 $00 $00 $00 $00 $00
  3781 4828 00 00 00 00 00 00 + .by  $00 $00 $00 $00 $00 $00 $00 $00  $00 $00 $00 $00 $00 $00 $00 $00  $00 $00 $00 $00 $00 $00 $00 $00
  3782 4840 00 00 00 00 00 00 + .by  $00 $00 $00 $00 $00 $00 $00 $00  $00 $00 $00 $00 $00 $00 $00 $00  $00 $00 $00 $00 $00 $00 $00 $00
  3783 4858 00 00 00 00 00 00 + .by  $00 $00 $00 $00 $00 $00 $00 $00  $00 $00 $00 $00 $00 $00 $00 $00  $00 $00 $00 $00 $00 $00 $00 $00
  3784 4870 00 00 00 00 00 00 + .by  $00 $00 $00 $00 $00 $00 $00 $00  $00 $00 $00 $00 $00 $00 $00 $00  $00 $00 $00 $00 $00 $00 $00 $00
  3785 4888 00 00 00 00 00 00 + .by  $00 $00 $00 $00 $00 $00 $00 $00  $00 $00 $00 $00 $00 $00 $00 $00  $00 $00 $00 $00 $00 $00 $00 $00
  3786 48A0 00 00 00 00 00 00 + .by  $00 $00 $00 $00 $00 $00 $00 $00  $00 $00 $00 $00 $00 $00 $00 $00  $00 $00 $00 $00 $00 $00 $00 $00
  3787 48B8 00 00 00 00 00 00 + .by  $00 $00 $00 $00 $00 $00 $00 $00  $00 $00 $00 $00 $00 $00 $00 $00  $00 $00 $00 $00 $00 $00 $00 $00
  3788 48D0 00 00 00 00 00 00 + .by  $00 $00 $00 $00 $00 $00 $00 $00  $00 $00 $00 $00 $00 $00 $00 $00  $00 $00 $00 $00 $00 $00 $00 $00
  3789 48E8 00 00 00 00 00 00 + .by  $00 $00 $00 $00 $00 $00 $00 $00  $00 $00 $00 $00 $00 $00 $00 $00  $00 $00 $00 $00 $00 $00 $00 $00
  3790 4900 00 00 00 00 00 00 + .by  $00 $00 $00 $00 $00 $00 $00 $00  $00 $00 $00 $00 $00 $00 $00 $00  $00 $00 $00 $00 $00 $00 $00 $00
  3791 4918 00 00 00 00 00 00 + .by  $00 $00 $00 $00 $00 $00 $00 $00  $00 $00 $00 $00 $00 $00 $00 $00  $00 $00 $00 $00 $00 $00 $00 $00
  3792 4930 00 00 00 00 00 00 + .by  $00 $00 $00 $00 $00 $00 $00 $00  $00 $00 $00 $00 $00 $00 $00 $00  $00 $00 $00 $00 $00 $00 $00 $00
  3793 4948 00 00 00 00 00 00 + .by  $00 $00 $00 $00 $00 $00 $00 $00  $00 $00 $00 $00 $00 $00 $00 $00  $00 $00 $00 $00 $00 $00 $00 $00
  3794 4960 00 00 00 00 00 00 + .by  $00 $00 $00 $00 $00 $00 $00 $00  $00 $00 $00 $00 $00 $00 $00 $00  $00 $00 $00 $00 $00 $00 $00 $00
  3795 4978 00 00 00 00 00 00 + .by  $00 $00 $00 $00 $00 $00 $00 $00  $00 $00 $00 $00 $00 $00 $00 $00  $00 $00 $00 $00 $00 $00 $00 $00
  3796 4990 00 00 00 00 00 00 + .by  $00 $00 $00 $00 $00 $00 $00 $00  $00 $00 $00 $00 $00 $00 $00 $00  $00 $00 $00 $00 $00 $00 $00 $00
  3797 49A8 00 00 00 00 00 00 + .by  $00 $00 $00 $00 $00 $00 $00 $00  $00 $00 $00 $00 $00 $00 $00 $00  $00 $00 $00 $00 $00 $00 $00 $00
  3798 49C0 00 00 00 00 00 00 + .by  $00 $00 $00 $00 $00 $00 $00 $00  $00 $00 $00 $00 $00 $00 $00 $00  $00 $00 $00 $00 $00 $00 $00 $00
  3799 49D8 00 00 00 00 00 00 + .by  $00 $00 $00 $00 $00 $00 $00 $00  $00 $00 $00 $00 $00 $00 $00 $00  $00 $00 $00 $00 $00 $00 $00 $00
  3800 49F0 00 00 00 00 00 00 + .by  $00 $00 $00 $00 $00 $00 $00 $00  $00 $00 $00 $00 $00 $00 $00 $00  $00 $00 $00 $00 $00 $00 $00 $00
  3801 4A08 00 00 00 00 00 00 + .by  $00 $00 $00 $00 $00 $00 $00 $00  $00 $00 $00 $00 $00 $00 $00 $00  $00 $00 $00 $00 $00 $00 $00 $00
  3802 4A20 00 00 00 00 00 00 + .by  $00 $00 $00 $00 $00 $00 $00 $00  $00 $00 $00 $00 $00 $00 $00 $00  $00 $00 $00 $00 $00 $00 $00 $00
  3803 4A38 00 00 00 00 00 00 + .by  $00 $00 $00 $00 $00 $00 $00 $00  $00 $00 $00 $00 $00 $00 $00 $00  $00 $00 $00 $00 $00 $00 $00 $00
  3804 4A50 00 00 00 00 00 00 + .by  $00 $00 $00 $00 $00 $00 $00 $00  $00 $00 $00 $00 $00 $00 $00 $00  $00 $00 $00 $00 $00 $00 $00 $00
  3805 4A68 00 00 00 00 00 00 + .by  $00 $00 $00 $00 $00 $00 $00 $00  $00 $00 $00 $00 $00 $00 $00 $00  $00 $00 $00 $00 $00 $00 $00 $00
  3806 4A80 00 00 00 00 00 00 + .by  $00 $00 $00 $00 $00 $00 $00 $00  $00 $00 $00 $00 $00 $00 $00 $00  $00 $00 $00 $00 $00 $00 $00 $00
  3807 4A98 00 00 00 00 00 00 + .by  $00 $00 $00 $00 $00 $00 $00 $00  $00 $00 $00 $00 $00 $00 $00 $00  $00 $00 $00 $00 $00 $00 $00 $00
  3808 4AB0 00 00 00 00 00 00 + .by  $00 $00 $00 $00 $00 $00 $00 $00  $00 $00 $00 $00 $00 $00 $00 $00  $00 $00 $00 $00 $00 $00 $00 $00
  3809 4AC8 00 00 00 00 00 00 + .by  $00 $00 $00 $00 $00 $00 $00 $00  $00 $00 $00 $00 $00 $00 $00 $00  $00 $00 $00 $00 $00 $00 $00 $00
  3810 4AE0 00 00 00 00 00 00 + .by  $00 $00 $00 $00 $00 $00 $00 $00  $00 $00 $00 $00 $00 $00 $00 $00  $00 $00 $00 $00 $00 $00 $00 $00
  3811 4AF8 00 00 00 00 00 00 + .by  $00 $00 $00 $00 $00 $00 $00 $00  $00 $00 $00 $00 $00 $00 $00 $00  $00 $00 $00 $00 $00 $00 $00 $00
  3812 4B10 00 00 00 00 00 00 + .by  $00 $00 $00 $00 $00 $00 $00 $00  $00 $00 $00 $00 $00 $00 $00 $00  $00 $00 $00 $00 $00 $00 $00 $00
  3813 4B28 00 00 00 00 00 00 + .by  $00 $00 $00 $00 $00 $00 $00 $00  $00 $00 $00 $00 $00 $00 $00 $00  $00 $00 $00 $00 $00 $00 $00 $00
  3814 4B40 00 00 00 00 00 00 + .by  $00 $00 $00 $00 $00 $00 $00 $00  $00 $00 $00 $00 $00 $00 $00 $00  $00 $00 $00 $00 $00 $00 $00 $00
  3815 4B58 00 00 00 00 00 00 + .by  $00 $00 $00 $00 $00 $00 $00 $00  $00 $00 $00 $00 $00 $00 $00 $00  $00 $00 $00 $00 $00 $00 $00 $00
  3816 4B70 00 00 00 00 00 00 + .by  $00 $00 $00 $00 $00 $00 $00 $00  $00 $00 $00 $00 $00 $00 $00 $00  $00 $00 $00 $00 $00 $00 $00 $00
  3817 4B88 00 00 00 00 00 00 + .by  $00 $00 $00 $00 $00 $00 $00 $00  $00 $00 $00 $00 $00 $00 $00 $00  $00 $00 $00 $00 $00 $00 $00 $00
  3818 4BA0 00 00 00 00 00 00 + .by  $00 $00 $00 $00 $00 $00 $00 $00  $00 $00 $00 $00 $00 $00 $00 $00  $00 $00 $00 $00 $00 $00 $00 $00
  3819 4BB8 00 00 00 00 00 00 + .by  $00 $00 $00 $00 $00 $00 $00 $00  $00 $00 $00 $00 $00 $00 $00 $00  $00 $00 $00 $00 $00 $00 $00 $00
  3820 4BD0 00 00 00 00 00 00 + .by  $00 $00 $00 $00 $00 $00 $00 $00  $00 $00 $00 $00 $00 $00 $00 $00  $00 $00 $00 $00 $00 $00 $00 $00
  3821 4BE8 00 00 00 00 00 00 + .by  $00 $00 $00 $00 $00 $00 $00 $00  $00 $00 $00 $00 $00 $00 $00 $00  $00 $00 $00 $00 $00 $00 $00 $00
  3822 4C00 00 00 00 00 00 00 + .by  $00 $00 $00 $00 $00 $00 $00 $00  $00 $00 $00 $00 $00 $00 $00 $00  $00 $00 $00 $00 $00 $00 $00 $00
  3823 4C18 00 00 00 00 00 00 + .by  $00 $00 $00 $00 $00 $00 $00 $00  $00 $00 $00 $00 $00 $00 $00 $00  $00 $00 $00 $00 $00 $00 $00 $00
  3824 4C30 00 00 00 00 00 00 + .by  $00 $00 $00 $00 $00 $00 $00 $00  $00 $00 $00 $00 $00 $00 $00 $00  $00 $00 $00 $00 $00 $00 $00 $00
  3825 4C48 00 00 00 00 00 00 + .by  $00 $00 $00 $00 $00 $00 $00 $00  $00 $00 $00 $00 $00 $00 $00 $00  $00 $00 $00 $00 $00 $00 $00 $00
  3826 4C60 00 00 00 00 00 00 + .by  $00 $00 $00 $00 $00 $00 $00 $00  $00 $00 $00 $00 $00 $00 $00 $00  $00 $00 $00 $00 $00 $00 $00 $00
  3827 4C78 00 00 00 00 00 00 + .by  $00 $00 $00 $00 $00 $00 $00 $00  $00 $00 $00 $00 $00 $00 $00 $00  $00 $00 $00 $00 $00 $00 $00 $00
  3828 4C90 00 00 00 00 00 00 + .by  $00 $00 $00 $00 $00 $00 $00 $00  $00 $00 $00 $00 $00 $00 $00 $00  $00 $00 $00 $00 $00 $00 $00 $00
  3829 4CA8 00 00 00 00 00 00 + .by  $00 $00 $00 $00 $00 $00 $00 $00  $00 $00 $00 $00 $00 $00 $00 $00  $00 $00 $00 $00 $00 $00 $00 $00
  3830 4CC0 00 00 00 00 00 00 + .by  $00 $00 $00 $00 $00 $00 $00 $00  $00 $00 $00 $00 $00 $00 $00 $00  $00 $00 $00 $00 $00 $00 $00 $00
  3831 4CD8 00 00 00 00 00 00 + .by  $00 $00 $00 $00 $00 $00 $00 $00  $00 $00 $00 $00 $00 $00 $00 $00  $00 $00 $00 $00 $00 $00 $00 $00
  3832 4CF0 00 00 00 00 00 00 + .by  $00 $00 $00 $00 $00 $00 $00 $00  $00 $00 $00 $00 $00 $00 $00 $00  $00 $00 $00 $00 $00 $00 $00 $00
  3833 4D08 00 00 00 00 00 00 + .by  $00 $00 $00 $00 $00 $00 $00 $00  $00 $00 $00 $00 $00 $00 $00 $00  $00 $00 $00 $00 $00 $00 $00 $00
  3834 4D20 00 00 00 00 00 00 + .by  $00 $00 $00 $00 $00 $00 $00 $00  $00 $00 $00 $00 $00 $00 $00 $00  $00 $00 $00 $00 $00 $00 $00 $00
  3835 4D38 00 00 00 00 00 00 + .by  $00 $00 $00 $00 $00 $00 $00 $00  $00 $00 $00 $00 $00 $00 $00 $00  $00 $00 $00 $00 $00 $00 $00 $00
  3836 4D50 00 00 00 00 00 00 + .by  $00 $00 $00 $00 $00 $00 $00 $00  $00 $00 $00 $00 $00 $00 $00 $00  $00 $00 $00 $00 $00 $00 $00 $00
  3837 4D68 00 00 00 00 00 00 + .by  $00 $00 $00 $00 $00 $00 $00 $00  $00 $00 $00 $00 $00 $00 $00 $00  $00 $00 $00 $00 $00 $00 $00 $00
  3838 4D80 00 00 00 00 00 00 + .by  $00 $00 $00 $00 $00 $00 $00 $00  $00 $00 $00 $00 $00 $00 $00 $00  $00 $00 $00 $00 $00 $00 $00 $00
  3839 4D98 00 00 00 00 00 00 + .by  $00 $00 $00 $00 $00 $00 $00 $00  $00 $00 $00 $00 $00 $00 $00 $00  $00 $00 $00 $00 $00 $00 $00 $00
  3840 4DB0 00 00 00 00 00 00 + .by  $00 $00 $00 $00 $00 $00 $00 $00  $00 $00 $00 $00 $00 $00 $00 $00  $00 $00 $00 $00 $00 $00 $00 $00
  3841 4DC8 00 00 00 00 00 00 + .by  $00 $00 $00 $00 $00 $00 $00 $00  $00 $00 $00 $00 $00 $00 $00 $00  $00 $00 $00 $00 $00 $00 $00 $00
  3842 4DE0 00 00 00 00 00 00 + .by  $00 $00 $00 $00 $00 $00 $00 $00  $00 $00 $00 $00 $00 $00 $00 $00  $00 $00 $00 $00 $00 $00 $00 $00
  3843 4DF8 00 00 00 00 00 00 + .by  $00 $00 $00 $00 $00 $00 $00 $00  $00 $00 $00 $00 $00 $00 $00 $00  $00 $00 $00 $00 $00 $00 $00 $00
  3844 4E10 00 00 00 00 00 00 + .by  $00 $00 $00 $00 $00 $00 $00 $00  $00 $00 $00 $00 $00 $00 $00 $00  $00 $00 $00 $00 $00 $00 $00 $00
  3845 4E28 00 00 00 00 00 00 + .by  $00 $00 $00 $00 $00 $00 $00 $00  $00 $00 $00 $00 $00 $00 $00 $00  $00 $00 $00 $00 $00 $00 $00 $00
  3846 4E40 00 00 00 00 00 00 + .by  $00 $00 $00 $00 $00 $00 $00 $00  $00 $00 $00 $00 $00 $00 $00 $00  $00 $00 $00 $00 $00 $00 $00 $00
  3847 4E58 00 00 00 00 00 00 + .by  $00 $00 $00 $00 $00 $00 $00 $00  $00 $00 $00 $00 $00 $00 $00 $00  $00 $00 $00 $00 $00 $00 $00 $00
  3848 4E70 00 00 00 00 00 00 + .by  $00 $00 $00 $00 $00 $00 $00 $00  $00 $00 $00 $00 $00 $00 $00 $00  $00 $00 $00 $00 $00 $00 $00 $00
  3849 4E88 00 00 00 00 00 00 + .by  $00 $00 $00 $00 $00 $00 $00 $00  $00 $00 $00 $00 $00 $00 $00 $00  $00 $00 $00 $00 $00 $00 $00 $00
  3850 4EA0 00 00 00 00 00 00 + .by  $00 $00 $00 $00 $00 $00 $00 $00  $00 $00 $00 $00 $00 $00 $00 $00  $00 $00 $00 $00 $00 $00 $00 $00
  3851 4EB8 00 00 00 00 00 00 + .by  $00 $00 $00 $00 $00 $00 $00 $00  $00 $00 $00 $00 $00 $00 $00 $00  $00 $00 $00 $00 $00 $00 $00 $00
  3852 4ED0 00 00 00 00 00 00 + .by  $00 $00 $00 $00 $00 $00 $00 $00  $00 $00 $00 $00 $00 $00 $00 $00  $00 $00 $00 $00 $00 $00 $00 $00
  3853 4EE8 00 00 00 00 00 00 + .by  $00 $00 $00 $00 $00 $00 $00 $00  $00 $00 $00 $00 $00 $00 $00 $00  $00 $00 $00 $00 $00 $00 $00 $00
  3854 4F00 00 00 00 00 00 00 + .by  $00 $00 $00 $00 $00 $00 $00 $00  $00 $00 $00 $00 $00 $00 $00 $00  $00 $00 $00 $00 $00 $00 $00 $00
  3855 4F18 00 00 00 00 00 00 + .by  $00 $00 $00 $00 $00 $00 $00 $00  $00 $00 $00 $00 $00 $00 $00 $00  $00 $00 $00 $00 $00 $00 $00 $00
  3856 4F30 00 00 00 00 00 00 + .by  $00 $00 $00 $00 $00 $00 $00 $00  $00 $00 $00 $00 $00 $00 $00 $00  $00 $00 $00 $00 $00 $00 $00 $00
  3857 4F48 00 00 00 00 00 00 + .by  $00 $00 $00 $00 $00 $00 $00 $00  $00 $00 $00 $00 $00 $00 $00 $00  $00 $00 $00 $00 $00 $00 $00 $00
  3858 4F60 00 00 00 00 00 00 + .by  $00 $00 $00 $00 $00 $00 $00 $00  $00 $00 $00 $00 $00 $00 $00 $00  $00 $00 $00 $00 $00 $00 $00 $00
  3859 4F78 00 00 00 00 00 00 + .by  $00 $00 $00 $00 $00 $00 $00 $00  $00 $00 $00 $00 $00 $00 $00 $00  $00 $00 $00 $00 $00 $00 $00 $00
  3860 4F90 00 00 00 00 00 00 + .by  $00 $00 $00 $00 $00 $00 $00 $00  $00 $00 $00 $00 $00 $00 $00 $00  $00 $00 $00 $00 $00 $00 $00 $00
  3861 4FA8 00 00 00 00 00 00 + .by  $00 $00 $00 $00 $00 $00 $00 $00  $00 $00 $00 $00 $00 $00 $00 $00  $00 $00 $00 $00 $00 $00 $00 $00
  3862 4FC0 00 00 00 00 00 00 + .by  $00 $00 $00 $00 $00 $00 $00 $00  $00 $00 $00 $00 $00 $00 $00 $00  $00 $00 $00 $00 $00 $00 $00 $00
  3863 4FD8 00 00 00 00 00 00 + .by  $00 $00 $00 $00 $00 $00 $00 $00  $00 $00 $00 $00 $00 $00 $00 $00  $00 $00 $00 $00 $00 $00 $00 $00
  3864 4FF0 00 00 00 00 00 00 + .by  $00 $00 $00 $00 $00 $00 $00 $00  $00 $00 $00 $00 $00 $00 $00 $00  $00 $00 $00 $00 $00 $00 $00 $00
  3865 5008 00 00 00 00 00 00 + .by  $00 $00 $00 $00 $00 $00 $00 $00  $00 $00 $00 $00 $00 $00 $00 $00  $00 $00 $00 $00 $00 $00 $00 $00
  3866 5020 00 00 00 00 00 00 + .by  $00 $00 $00 $00 $00 $00 $00 $00  $00 $00 $00 $00 $00 $00 $00 $00  $00 $00 $00 $00 $00 $00 $00 $00
  3867 5038 00 00 00 00 00 00 + .by  $00 $00 $00 $00 $00 $00 $00 $00  $00 $00 $00 $00 $00 $00 $00 $00  $00 $00 $00 $00 $00 $00 $00 $00
  3868 5050 00 00 00 00 00 00 + .by  $00 $00 $00 $00 $00 $00 $00 $00  $00 $00 $00 $00 $00 $00 $00 $00  $00 $00 $00 $00 $00 $00 $00 $00
  3869 5068 00 00 00 00 00 00 + .by  $00 $00 $00 $00 $00 $00 $00 $00  $00 $00 $00 $00 $00 $00 $00 $00  $00 $00 $00 $00 $00 $00 $00 $00
  3870 5080 00 00 00 00 00 00 + .by  $00 $00 $00 $00 $00 $00 $00 $00  $00 $00 $00 $00 $00 $00 $00 $00  $00 $00 $00 $00 $00 $00 $00 $00
  3871 5098 00 00 00 00 00 00 + .by  $00 $00 $00 $00 $00 $00 $00 $00  $00 $00 $00 $00 $00 $00 $00 $00  $00 $00 $00 $00 $00 $00 $00 $00
  3872 50B0 00 00 00 00 00 00 + .by  $00 $00 $00 $00 $00 $00 $00 $00  $00 $00 $00 $00 $00 $00 $00 $00  $00 $00 $00 $00 $00 $00 $00 $00
  3873 50C8 00 00 00 00 00 00 + .by  $00 $00 $00 $00 $00 $00 $00 $00  $00 $00 $00 $00 $00 $00 $00 $00  $00 $00 $00 $00 $00 $00 $00 $00
  3874 50E0 00 00 00 00 00 00 + .by  $00 $00 $00 $00 $00 $00 $00 $00  $00 $00 $00 $00 $00 $00 $00 $00  $00 $00 $00 $00 $00 $00 $00 $00
  3875 50F8 00 00 00 00 00 00 + .by  $00 $00 $00 $00 $00 $00 $00 $00  $00 $00 $00 $00 $00 $00 $00 $00  $00 $00 $00 $00 $00 $00 $00 $00
  3876 5110 00 00 00 00 00 00 + .by  $00 $00 $00 $00 $00 $00 $00 $00  $00 $00 $00 $00 $00 $00 $00 $00  $00 $00 $00 $00 $00 $00 $00 $00
  3877 5128 00 00 00 00 00 00 + .by  $00 $00 $00 $00 $00 $00 $00 $00  $00 $00 $00 $00 $00 $00 $00 $00  $00 $00 $00 $00 $00 $00 $00 $00
  3878 5140 00 00 00 00 00 00 + .by  $00 $00 $00 $00 $00 $00 $00 $00  $00 $00 $00 $00 $00 $00 $00 $00  $00 $00 $00 $00 $00 $00 $00 $00
  3879 5158 00 00 00 00 00 00 + .by  $00 $00 $00 $00 $00 $00 $00 $00  $00 $00 $00 $00 $00 $00 $00 $00  $00 $00 $00 $00 $00 $00 $00 $00
  3880 5170 00 00 00 00 00 00 + .by  $00 $00 $00 $00 $00 $00 $00 $00  $00 $00 $00 $00 $00 $00 $00 $00  $00 $00 $00 $00 $00 $00 $00 $00
  3881 5188 00 00 00 00 00 00 + .by  $00 $00 $00 $00 $00 $00 $00 $00  $00 $00 $00 $00 $00 $00 $00 $00  $00 $00 $00 $00 $00 $00 $00 $00
  3882 51A0 00 00 00 00 00 00 + .by  $00 $00 $00 $00 $00 $00 $00 $00  $00 $00 $00 $00 $00 $00 $00 $00  $00 $00 $00 $00 $00 $00 $00 $00
  3883 51B8 00 00 00 00 00 00 + .by  $00 $00 $00 $00 $00 $00 $00 $00  $00 $00 $00 $00 $00 $00 $00 $00  $00 $00 $00 $00 $00 $00 $00 $00
  3884 51D0 00 00 00 00 00 00 + .by  $00 $00 $00 $00 $00 $00 $00 $00  $00 $00 $00 $00 $00 $00 $00 $00  $00 $00 $00 $00 $00 $00 $00 $00
  3885 51E8 00 00 00 00 00 00 + .by  $00 $00 $00 $00 $00 $00 $00 $00  $00 $00 $00 $00 $00 $00 $00 $00  $00 $00 $00 $00 $00 $00 $00 $00
  3886 5200 00 00 00 00 00 00 + .by  $00 $00 $00 $00 $00 $00 $00 $00  $00 $00 $00 $00 $00 $00 $00 $00  $00 $00 $00 $00 $00 $00 $00 $00
  3887 5218 00 00 00 00 00 00 + .by  $00 $00 $00 $00 $00 $00 $00 $00  $00 $00 $00 $00 $00 $00 $00 $00  $00 $00 $00 $00 $00 $00 $00 $00
  3888 5230 00 00 00 00 00 00 + .by  $00 $00 $00 $00 $00 $00 $00 $00  $00 $00 $00 $00 $00 $00 $00 $00  $00 $00 $00 $00 $00 $00 $00 $00
  3889 5248 00 00 00 00 00 00 + .by  $00 $00 $00 $00 $00 $00 $00 $00  $00 $00 $00 $00 $00 $00 $00 $00  $00 $00 $00 $00 $00 $00 $00 $00
  3890 5260 00 00 00 00 00 00 + .by  $00 $00 $00 $00 $00 $00 $00 $00  $00 $00 $00 $00 $00 $00 $00 $00  $00 $00 $00 $00 $00 $00 $00 $00
  3891 5278 00 00 00 00 00 00 + .by  $00 $00 $00 $00 $00 $00 $00 $00  $00 $00 $00 $00 $00 $00 $00 $00  $00 $00 $00 $00 $00 $00 $00 $00
  3892 5290 00 00 00 00 00 00 + .by  $00 $00 $00 $00 $00 $00 $00 $00  $00 $00 $00 $00 $00 $00 $00 $00  $00 $00 $00 $00 $00 $00 $00 $00
  3893 52A8 00 00 00 00 00 00 + .by  $00 $00 $00 $00 $00 $00 $00 $00  $00 $00 $00 $00 $00 $00 $00 $00  $00 $00 $00 $00 $00 $00 $00 $00
  3894 52C0 00 00 00 00 00 00 + .by  $00 $00 $00 $00 $00 $00 $00 $00  $00 $00 $00 $00 $00 $00 $00 $00  $00 $00 $00 $00 $00 $00 $00 $00
  3895 52D8 00 00 00 00 00 00 + .by  $00 $00 $00 $00 $00 $00 $00 $00  $00 $00 $00 $00 $00 $00 $00 $00  $00 $00 $00 $00 $00 $00 $00 $00
  3896 52F0 00 00 00 00 00 00 + .by  $00 $00 $00 $00 $00 $00 $00 $00  $00 $00 $00 $00 $00 $00 $00 $00  $00 $00 $00 $00 $00 $00 $00 $00
  3897 5308 00 00 00 00 00 00 + .by  $00 $00 $00 $00 $00 $00 $00 $00  $00 $00 $00 $00 $00 $00 $00 $00  $00 $00 $00 $00 $00 $00 $00 $00
  3898 5320 00 00 00 00 00 00 + .by  $00 $00 $00 $00 $00 $00 $00 $00  $00 $00 $00 $00 $00 $00 $00 $00  $00 $00 $00 $00 $00 $00 $00 $00
  3899 5338 00 00 00 00 00 00 + .by  $00 $00 $00 $00 $00 $00 $00 $00  $00 $00 $00 $00 $00 $00 $00 $00  $00 $00 $00 $00 $00 $00 $00 $00
  3900 5350 00 00 00 00 00 00 + .by  $00 $00 $00 $00 $00 $00 $00 $00  $00 $00 $00 $00 $00 $00 $00 $00  $00 $00 $00 $00 $00 $00 $00 $00
  3901 5368 00 00 00 00 00 00 + .by  $00 $00 $00 $00 $00 $00 $00 $00  $00 $00 $00 $00 $00 $00 $00 $00  $00 $00 $00 $00 $00 $00 $00 $00
  3902 5380 00 00 00 00 00 00 + .by  $00 $00 $00 $00 $00 $00 $00 $00  $00 $00 $00 $00 $00 $00 $00 $00  $00 $00 $00 $00 $00 $00 $00 $00
  3903 5398 00 00 00 00 00 00 + .by  $00 $00 $00 $00 $00 $00 $00 $00  $00 $00 $00 $00 $00 $00 $00 $00  $00 $00 $00 $00 $00 $00 $00 $00
  3904 53B0 00 00 00 00 00 00 + .by  $00 $00 $00 $00 $00 $00 $00 $00  $00 $00 $00 $00 $00 $00 $00 $00  $00 $00 $00 $00 $00 $00 $00 $00
  3905 53C8 00 00 00 00 00 00 + .by  $00 $00 $00 $00 $00 $00 $00 $00  $00 $00 $00 $00 $00 $00 $00 $00  $00 $00 $00 $00 $00 $00 $00 $00
  3906 53E0 00 00 00 00 00 00 + .by  $00 $00 $00 $00 $00 $00 $00 $00  $00 $00 $00 $00 $00 $00 $00 $00  $00 $00 $00 $00 $00 $00 $00 $00
  3907 53F8 00 00 00 00 00 00 + .by  $00 $00 $00 $00 $00 $00 $00 $00  $00 $00 $00 $00 $00 $00 $00 $00  $00 $00 $00 $00 $00 $00 $00 $00
  3908 5410 00 00 00 00 00 00 + .by  $00 $00 $00 $00 $00 $00 $00 $00  $00 $00 $00 $00 $00 $00 $00 $00  $00 $00 $00 $00 $00 $00 $00 $00
  3909 5428 00 00 00 00 00 00 + .by  $00 $00 $00 $00 $00 $00 $00 $00  $00 $00 $00 $00 $00 $00 $00 $00  $00 $00 $00 $00 $00 $00 $00 $00
  3910 5440 00 00 00 00 00 00 + .by  $00 $00 $00 $00 $00 $00 $00 $00  $00 $00 $00 $00 $00 $00 $00 $00  $00 $00 $00 $00 $00 $00 $00 $00
  3911 5458 00 00 00 00 00 00 + .by  $00 $00 $00 $00 $00 $00 $00 $00  $00 $00 $00 $00 $00 $00 $00 $00  $00 $00 $00 $00 $00 $00 $00 $00
  3912 5470 00 00 00 00 00 00 + .by  $00 $00 $00 $00 $00 $00 $00 $00  $00 $00 $00 $00 $00 $00 $00 $00  $00 $00 $00 $00 $00 $00 $00 $00
  3913 5488 00 00 00 00 00 00 + .by  $00 $00 $00 $00 $00 $00 $00 $00  $00 $00 $00 $00 $00 $00 $00 $00  $00 $00 $00 $00 $00 $00 $00 $00
  3914 54A0 00 00 00 00 00 00 + .by  $00 $00 $00 $00 $00 $00 $00 $00  $00 $00 $00 $00 $00 $00 $00 $00  $00 $00 $00 $00 $00 $00 $00 $00
  3915 54B8 00 00 00 00 00 00 + .by  $00 $00 $00 $00 $00 $00 $00 $00  $00 $00 $00 $00 $00 $00 $00 $00  $00 $00 $00 $00 $00 $00 $00 $00
  3916 54D0 00 00 00 00 00 00 + .by  $00 $00 $00 $00 $00 $00 $00 $00  $00 $00 $00 $00 $00 $00 $00 $00  $00 $00 $00 $00 $00 $00 $00 $00
  3917 54E8 00 00 00 00 00 00 + .by  $00 $00 $00 $00 $00 $00 $00 $00  $00 $00 $00 $00 $00 $00 $00 $00  $00 $00 $00 $00 $00 $00 $00 $00
  3918 5500 00 00 00 00 00 00 + .by  $00 $00 $00 $00 $00 $00 $00 $00  $00 $00 $00 $00 $00 $00 $00 $00  $00 $00 $00 $00 $00 $00 $00 $00
  3919 5518 00 00 00 00 00 00 + .by  $00 $00 $00 $00 $00 $00 $00 $00  $00 $00 $00 $00 $00 $00 $00 $00  $00 $00 $00 $00 $00 $00 $00 $00
  3920 5530 00 00 00 00 00 00 + .by  $00 $00 $00 $00 $00 $00 $00 $00  $00 $00 $00 $00 $00 $00 $00 $00  $00 $00 $00 $00 $00 $00 $00 $00
  3921 5548 00 00 00 00 00 00 + .by  $00 $00 $00 $00 $00 $00 $00 $00  $00 $00 $00 $00 $00 $00 $00 $00  $00 $00 $00 $00 $00 $00 $00 $00
  3922 5560 00 00 00 00 00 00 + .by  $00 $00 $00 $00 $00 $00 $00 $00  $00 $00 $00 $00 $00 $00 $00 $00  $00 $00 $00 $00 $00 $00 $00 $00
  3923 5578 00 00 00 00 00 00 + .by  $00 $00 $00 $00 $00 $00 $00 $00  $00 $00 $00 $00 $00 $00 $00 $00  $00 $00 $00 $00 $00 $00 $00 $00
  3924 5590 00 00 00 00 00 00 + .by  $00 $00 $00 $00 $00 $00 $00 $00  $00 $00 $00 $00 $00 $00 $00 $00  $00 $00 $00 $00 $00 $00 $00 $00
  3925 55A8 00 00 00 00 00 00 + .by  $00 $00 $00 $00 $00 $00 $00 $00  $00 $00 $00 $00 $00 $00 $00 $00  $00 $00 $00 $00 $00 $00 $00 $00
  3926 55C0 00 00 00 00 00 00 + .by  $00 $00 $00 $00 $00 $00 $00 $00  $00 $00 $00 $00 $00 $00 $00 $00  $00 $00 $00 $00 $00 $00 $00 $00
  3927 55D8 00 00 00 00 00 00 + .by  $00 $00 $00 $00 $00 $00 $00 $00  $00 $00 $00 $00 $00 $00 $00 $00  $00 $00 $00 $00 $00 $00 $00 $00
  3928 55F0 00 00 00 00 00 00 + .by  $00 $00 $00 $00 $00 $00 $00 $00  $00 $00 $00 $00 $00 $00 $00 $00  $00 $00 $00 $00 $00 $00 $00 $00
  3929 5608 00 00 00 00 00 00 + .by  $00 $00 $00 $00 $00 $00 $00 $00  $00 $00 $00 $00 $00 $00 $00 $00  $00 $00 $00 $00 $00 $00 $00 $00
  3930 5620 00 00 00 00 00 00 + .by  $00 $00 $00 $00 $00 $00 $00 $00  $00 $00 $00 $00 $00 $00 $00 $00  $00 $00 $00 $00 $00 $00 $00 $00
  3931 5638 00 00 00 00 00 00 + .by  $00 $00 $00 $00 $00 $00 $00 $00  $00 $00 $00 $00 $00 $00 $00 $00  $00 $00 $00 $00 $00 $00 $00 $00
  3932 5650 00 00 00 00 00 00 + .by  $00 $00 $00 $00 $00 $00 $00 $00  $00 $00 $00 $00 $00 $00 $00 $00  $00 $00 $00 $00 $00 $00 $00 $00
  3933 5668 00 00 00 00 00 00 + .by  $00 $00 $00 $00 $00 $00 $00 $00  $00 $00 $00 $00 $00 $00 $00 $00  $00 $00 $00 $00 $00 $00 $00 $00
  3934 5680 00 00 00 00 00 00 + .by  $00 $00 $00 $00 $00 $00 $00 $00  $00 $00 $00 $00 $00 $00 $00 $00  $00 $00 $00 $00 $00 $00 $00 $00
  3935 5698 00 00 00 00 00 00 + .by  $00 $00 $00 $00 $00 $00 $00 $00  $00 $00 $00 $00 $00 $00 $00 $00  $00 $00 $00 $00 $00 $00 $00 $00
  3936 56B0 00 00 00 00 00 00 + .by  $00 $00 $00 $00 $00 $00 $00 $00  $00 $00 $00 $00 $00 $00 $00 $00  $00 $00 $00 $00 $00 $00 $00 $00
  3937 56C8 00 00 00 00 00 00 + .by  $00 $00 $00 $00 $00 $00 $00 $00  $00 $00 $00 $00 $00 $00 $00 $00  $00 $00 $00 $00 $00 $00 $00 $00
  3938 56E0 00 00 00 00 00 00 + .by  $00 $00 $00 $00 $00 $00 $00 $00  $00 $00 $00 $00 $00 $00 $00 $00  $00 $00 $00 $00 $00 $00 $00 $00
  3939 56F8 00 00 00 00 00 00 + .by  $00 $00 $00 $00 $00 $00 $00 $00  $00 $00 $00 $00 $00 $00 $00 $00  $00 $00 $00 $00 $00 $00 $00 $00
  3940 5710 00 00 00 00 00 00 + .by  $00 $00 $00 $00 $00 $00 $00 $00  $00 $00 $00 $00 $00 $00 $00 $00  $00 $00 $00 $00 $00 $00 $00 $00
  3941 5728 00 00 00 00 00 00 + .by  $00 $00 $00 $00 $00 $00 $00 $00  $00 $00 $00 $00 $00 $00 $00 $00  $00 $00 $00 $00 $00 $00 $00 $00
  3942 5740 00 00 00 00 00 00 + .by  $00 $00 $00 $00 $00 $00 $00 $00  $00 $00 $00 $00 $00 $00 $00 $00  $00 $00 $00 $00 $00 $00 $00 $00
  3943 5758 00 00 00 00 00 00 + .by  $00 $00 $00 $00 $00 $00 $00 $00  $00 $00 $00 $00 $00 $00 $00 $00  $00 $00 $00 $00 $00 $00 $00 $00
  3944 5770 00 00 00 00 00 00 + .by  $00 $00 $00 $00 $00 $00 $00 $00  $00 $00 $00 $00 $00 $00 $00 $00  $00 $00 $00 $00 $00 $00 $00 $00
  3945 5788 00 00 00 00 00 00 + .by  $00 $00 $00 $00 $00 $00 $00 $00  $00 $00 $00 $00 $00 $00 $00 $00  $00 $00 $00 $00 $00 $00 $00 $00
  3946 57A0 00 00 00 00 00 00 + .by  $00 $00 $00 $00 $00 $00 $00 $00  $00 $00 $00 $00 $00 $00 $00 $00  $00 $00 $00 $00 $00 $00 $00 $00
  3947 57B8 00 00 00 00 00 00 + .by  $00 $00 $00 $00 $00 $00 $00 $00  $00 $00 $00 $00 $00 $00 $00 $00  $00 $00 $00 $00 $00 $00 $00 $00
  3948 57D0 00 00 00 00 00 00 + .by  $00 $00 $00 $00 $00 $00 $00 $00  $00 $00 $00 $00 $00 $00 $00 $00  $00 $00 $00 $00 $00 $00 $00 $00
  3949 57E8 00 00 00 00 00 00 + .by  $00 $00 $00 $00 $00 $00 $00 $00  $00 $00 $00 $00 $00 $00 $00 $00  $00 $00 $00 $00 $00 $00 $00 $00
  3950 5800 00 00 00 00 00 00 + .by  $00 $00 $00 $00 $00 $00 $00 $00  $00 $00 $00 $00 $00 $00 $00 $00  $00 $00 $00 $00 $00 $00 $00 $00
  3951 5818 00 00 00 00 00 00 + .by  $00 $00 $00 $00 $00 $00 $00 $00  $00 $00 $00 $00 $00 $00 $00 $00  $00 $00 $00 $00 $00 $00 $00 $00
  3952 5830 00 00 00 00 00 00 + .by  $00 $00 $00 $00 $00 $00 $00 $00  $00 $00 $00 $00 $00 $00 $00 $00  $00 $00 $00 $00 $00 $00 $00 $00
  3953 5848 00 00 00 00 00 00 + .by  $00 $00 $00 $00 $00 $00 $00 $00  $00 $00 $00 $00 $00 $00 $00 $00  $00 $00 $00 $00 $00 $00 $00 $00
  3954 5860 00 00 00 00 00 00 + .by  $00 $00 $00 $00 $00 $00 $00 $00  $00 $00 $00 $00 $00 $00 $00 $00  $00 $00 $00 $00 $00 $00 $00 $00
  3955 5878 00 00 00 00 00 00 + .by  $00 $00 $00 $00 $00 $00 $00 $00  $00 $00 $00 $00 $00 $00 $00 $00  $00 $00 $00 $00 $00 $00 $00 $00
  3956 5890 00 00 00 00 00 00 + .by  $00 $00 $00 $00 $00 $00 $00 $00  $00 $00 $00 $00 $00 $00 $00 $00  $00 $00 $00 $00 $00 $00 $00 $00
  3957 58A8 00 00 00 00 00 00 + .by  $00 $00 $00 $00 $00 $00 $00 $00  $00 $00 $00 $00 $00 $00 $00 $00  $00 $00 $00 $00 $00 $00 $00 $00
  3958 58C0 00 00 00 00 00 00 + .by  $00 $00 $00 $00 $00 $00 $00 $00  $00 $00 $00 $00 $00 $00 $00 $00  $00 $00 $00 $00 $00 $00 $00 $00
  3959 58D8 00 00 00 00 00 00 + .by  $00 $00 $00 $00 $00 $00 $00 $00  $00 $00 $00 $00 $00 $00 $00 $00  $00 $00 $00 $00 $00 $00 $00 $00
  3960 58F0 00 00 00 00 00 00 + .by  $00 $00 $00 $00 $00 $00 $00 $00  $00 $00 $00 $00 $00 $00 $00 $00  $00 $00 $00 $00 $00 $00 $00 $00
  3961 5908 00 00 00 00 00 00 + .by  $00 $00 $00 $00 $00 $00 $00 $00  $00 $00 $00 $00 $00 $00 $00 $00  $00 $00 $00 $00 $00 $00 $00 $00
  3962 5920 00 00 00 00 00 00 + .by  $00 $00 $00 $00 $00 $00 $00 $00  $00 $00 $00 $00 $00 $00 $00 $00  $00 $00 $00 $00 $00 $00 $00 $00
  3963 5938 00 00 00 00 00 00 + .by  $00 $00 $00 $00 $00 $00 $00 $00  $00 $00 $00 $00 $00 $00 $00 $00  $00 $00 $00 $00 $00 $00 $00 $00
  3964 5950 00 00 00 00 00 00 + .by  $00 $00 $00 $00 $00 $00 $00 $00  $00 $00 $00 $00 $00 $00 $00 $00  $00 $00 $00 $00 $00 $00 $00 $00
  3965 5968 00 00 00 00 00 00 + .by  $00 $00 $00 $00 $00 $00 $00 $00  $00 $00 $00 $00 $00 $00 $00 $00  $00 $00 $00 $00 $00 $00 $00 $00
  3966 5980 00 00 00 00 00 00 + .by  $00 $00 $00 $00 $00 $00 $00 $00  $00 $00 $00 $00 $00 $00 $00 $00  $00 $00 $00 $00 $00 $00 $00 $00
  3967 5998 00 00 00 00 00 00 + .by  $00 $00 $00 $00 $00 $00 $00 $00  $00 $00 $00 $00 $00 $00 $00 $00  $00 $00 $00 $00 $00 $00 $00 $00
  3968 59B0 00 00 00 00 00 00 + .by  $00 $00 $00 $00 $00 $00 $00 $00  $00 $00 $00 $00 $00 $00 $00 $00  $00 $00 $00 $00 $00 $00 $00 $00
  3969 59C8 00 00 00 00 00 00 + .by  $00 $00 $00 $00 $00 $00 $00 $00  $00 $00 $00 $00 $00 $00 $00 $00  $00 $00 $00 $00 $00 $00 $00 $00
  3970 59E0 00 00 00 00 00 00 + .by  $00 $00 $00 $00 $00 $00 $00 $00  $00 $00 $00 $00 $00 $00 $00 $00  $00 $00 $00 $00 $00 $00 $00 $00
  3971 59F8 00 00 00 00 00 00 + .by  $00 $00 $00 $00 $00 $00 $00 $00  $00 $00 $00 $00 $00 $00 $00 $00  $00 $00 $00 $00 $00 $00 $00 $00
  3972 5A10 00 00 00 00 00 00 + .by  $00 $00 $00 $00 $00 $00 $00 $00  $00 $00 $00 $00 $00 $00 $00 $00  $00 $00 $00 $00 $00 $00 $00 $00
  3973 5A28 00 00 00 00 00 00 + .by  $00 $00 $00 $00 $00 $00 $00 $00  $00 $00 $00 $00 $00 $00 $00 $00  $00 $00 $00 $00 $00 $00 $00 $00
  3974 5A40 00 00 00 00 00 00 + .by  $00 $00 $00 $00 $00 $00 $00 $00  $00 $00 $00 $00 $00 $00 $00 $00  $00 $00 $00 $00 $00 $00 $00 $00
  3975 5A58 00 00 00 00 00 00 + .by  $00 $00 $00 $00 $00 $00 $00 $00  $00 $00 $00 $00 $00 $00 $00 $00  $00 $00 $00 $00 $00 $00 $00 $00
  3976 5A70 00 00 00 00 00 00 + .by  $00 $00 $00 $00 $00 $00 $00 $00  $00 $00 $00 $00 $00 $00 $00 $00  $00 $00 $00 $00 $00 $00 $00 $00
  3977 5A88 00 00 00 00 00 00 + .by  $00 $00 $00 $00 $00 $00 $00 $00  $00 $00 $00 $00 $00 $00 $00 $00  $00 $00 $00 $00 $00 $00 $00 $00
  3978 5AA0 00 00 00 00 00 00 + .by  $00 $00 $00 $00 $00 $00 $00 $00  $00 $00 $00 $00 $00 $00 $00 $00  $00 $00 $00 $00 $00 $00 $00 $00
  3979 5AB8 00 00 00 00 00 00 + .by  $00 $00 $00 $00 $00 $00 $00 $00  $00 $00 $00 $00 $00 $00 $00 $00  $00 $00 $00 $00 $00 $00 $00 $00
  3980 5AD0 00 00 00 00 00 00 + .by  $00 $00 $00 $00 $00 $00 $00 $00  $00 $00 $00 $00 $00 $00 $00 $00  $00 $00 $00 $00 $00 $00 $00 $00
  3981 5AE8 00 00 00 00 00 00 + .by  $00 $00 $00 $00 $00 $00 $00 $00  $00 $00 $00 $00 $00 $00 $00 $00  $00 $00 $00 $00 $00 $00 $00 $00
  3982 5B00 00 00 00 00 00 00 + .by  $00 $00 $00 $00 $00 $00 $00 $00  $00 $00 $00 $00 $00 $00 $00 $00  $00 $00 $00 $00 $00 $00 $00 $00
  3983 5B18 00 00 00 00 00 00 + .by  $00 $00 $00 $00 $00 $00 $00 $00  $00 $00 $00 $00 $00 $00 $00 $00  $00 $00 $00 $00 $00 $00 $00 $00
  3984 5B30 00 00 00 00 00 00 + .by  $00 $00 $00 $00 $00 $00 $00 $00  $00 $00 $00 $00 $00 $00 $00 $00  $00 $00 $00 $00 $00 $00 $00 $00
  3985 5B48 00 00 00 00 00 00 + .by  $00 $00 $00 $00 $00 $00 $00 $00  $00 $00 $00 $00 $00 $00 $00 $00  $00 $00 $00 $00 $00 $00 $00 $00
  3986 5B60 00 00 00 00 00 00 + .by  $00 $00 $00 $00 $00 $00 $00 $00  $00 $00 $00 $00 $00 $00 $00 $00  $00 $00 $00 $00 $00 $00 $00 $00
  3987 5B78 00 00 00 00 00 00 + .by  $00 $00 $00 $00 $00 $00 $00 $00  $00 $00 $00 $00 $00 $00 $00 $00  $00 $00 $00 $00 $00 $00 $00 $00
  3988 5B90 00 00 00 00 00 00 + .by  $00 $00 $00 $00 $00 $00 $00 $00  $00 $00 $00 $00 $00 $00 $00 $00  $00 $00 $00 $00 $00 $00 $00 $00
  3989 5BA8 00 00 00 00 00 00 + .by  $00 $00 $00 $00 $00 $00 $00 $00  $00 $00 $00 $00 $00 $00 $00 $00  $00 $00 $00 $00 $00 $00 $00 $00
  3990 5BC0 00 00 00 00 00 00 + .by  $00 $00 $00 $00 $00 $00 $00 $00  $00 $00 $00 $00 $00 $00 $00 $00  $00 $00 $00 $00 $00 $00 $00 $00
  3991 5BD8 00 00 00 00 00 00 + .by  $00 $00 $00 $00 $00 $00 $00 $00  $00 $00 $00 $00 $00 $00 $00 $00  $00 $00 $00 $00 $00 $00 $00 $00
  3992 5BF0 00 00 00 00 00 00 + .by  $00 $00 $00 $00 $00 $00 $00 $00  $00 $00 $00 $00 $00 $00 $00 $00  $00 $00 $00 $00 $00 $00 $00 $00
  3993 5C08 00 00 00 00 00 00 + .by  $00 $00 $00 $00 $00 $00 $00 $00  $00 $00 $00 $00 $00 $00 $00 $00  $00 $00 $00 $00 $00 $00 $00 $00
  3994 5C20 00 00 00 00 00 00 + .by  $00 $00 $00 $00 $00 $00 $00 $00  $00 $00 $00 $00 $00 $00 $00 $00  $00 $00 $00 $00 $00 $00 $00 $00
  3995 5C38 00 00 00 00 00 00 + .by  $00 $00 $00 $00 $00 $00 $00 $00  $00 $00 $00 $00 $00 $00 $00 $00  $00 $00 $00 $00 $00 $00 $00 $00
  3996 5C50 00 00 00 00 00 00 + .by  $00 $00 $00 $00 $00 $00 $00 $00  $00 $00 $00 $00 $00 $00 $00 $00  $00 $00 $00 $00 $00 $00 $00 $00
  3997 5C68 00 00 00 00 00 00 + .by  $00 $00 $00 $00 $00 $00 $00 $00  $00 $00 $00 $00 $00 $00 $00 $00  $00 $00 $00 $00 $00 $00 $00 $00
  3998 5C80 00 00 00 00 00 00 + .by  $00 $00 $00 $00 $00 $00 $00 $00  $00 $00 $00 $00 $00 $00 $00 $00  $00 $00 $00 $00 $00 $00 $00 $00
  3999 5C98 00 00 00 00 00 00 + .by  $00 $00 $00 $00 $00 $00 $00 $00  $00 $00 $00 $00 $00 $00 $00 $00  $00 $00 $00 $00 $00 $00 $00 $00
  4000 5CB0 00 00 00 00 00 00 + .by  $00 $00 $00 $00 $00 $00 $00 $00  $00 $00 $00 $00 $00 $00 $00 $00  $00 $00 $00 $00 $00 $00 $00 $00
  4001 5CC8 00 00 00 00 00 00 + .by  $00 $00 $00 $00 $00 $00 $00 $00  $00 $00 $00 $00 $00 $00 $00 $00  $00 $00 $00 $00 $00 $00 $00 $00
  4002 5CE0 00 00 00 00 00 00 + .by  $00 $00 $00 $00 $00 $00 $00 $00  $00 $00 $00 $00 $00 $00 $00 $00  $00 $00 $00 $00 $00 $00 $00 $00
  4003 5CF8 00 00 00 00 00 00 + .by  $00 $00 $00 $00 $00 $00 $00 $00  $00 $00 $00 $00 $00 $00 $00 $00  $00 $00 $00 $00 $00 $00 $00 $00
  4004 5D10 00 00 00 00 00 00 + .by  $00 $00 $00 $00 $00 $00 $00 $00  $00 $00 $00 $00 $00 $00 $00 $00  $00 $00 $00 $00 $00 $00 $00 $00
  4005 5D28 00 00 00 00 00 00 + .by  $00 $00 $00 $00 $00 $00 $00 $00  $00 $00 $00 $00 $00 $00 $00 $00  $00 $00 $00 $00 $00 $00 $00 $00
  4006 5D40 00 00 00 00 00 00 + .by  $00 $00 $00 $00 $00 $00 $00 $00  $00 $00 $00 $00 $00 $00 $00 $00  $00 $00 $00 $00 $00 $00 $00 $00
  4007 5D58 00 00 00 00 00 00 + .by  $00 $00 $00 $00 $00 $00 $00 $00  $00 $00 $00 $00 $00 $00 $00 $00  $00 $00 $00 $00 $00 $00 $00 $00
  4008 5D70 00 00 00 00 00 00 + .by  $00 $00 $00 $00 $00 $00 $00 $00  $00 $00 $00 $00 $00 $00 $00 $00  $00 $00 $00 $00 $00 $00 $00 $00
  4009 5D88 00 00 00 00 00 00 + .by  $00 $00 $00 $00 $00 $00 $00 $00  $00 $00 $00 $00 $00 $00 $00 $00  $00 $00 $00 $00 $00 $00 $00 $00
  4010 5DA0 00 00 00 00 00 00 + .by  $00 $00 $00 $00 $00 $00 $00 $00  $00 $00 $00 $00 $00 $00 $00 $00  $00 $00 $00 $00 $00 $00 $00 $00
  4011 5DB8 00 00 00 00 00 00 + .by  $00 $00 $00 $00 $00 $00 $00 $00  $00 $00 $00 $00 $00 $00 $00 $00  $00 $00 $00 $00 $00 $00 $00 $00
  4012 5DD0 00 00 00 00 00 00 + .by  $00 $00 $00 $00 $00 $00 $00 $00  $00 $00 $00 $00 $00 $00 $00 $00  $00 $00 $00 $00 $00 $00 $00 $00
  4013 5DE8 00 00 00 00 00 00 + .by  $00 $00 $00 $00 $00 $00 $00 $00  $00 $00 $00 $00 $00 $00 $00 $00  $00 $00 $00 $00 $00 $00 $00 $00
  4014 5E00 00 00 00 00 00 00 + .by  $00 $00 $00 $00 $00 $00 $00 $00  $00 $00 $00 $00 $00 $00 $00 $00  $00 $00 $00 $00 $00 $00 $00 $00
  4015 5E18 00 00 00 00 00 00 + .by  $00 $00 $00 $00 $00 $00 $00 $00  $00 $00 $00 $00 $00 $00 $00 $00  $00 $00 $00 $00 $00 $00 $00 $00
  4016 5E30 00 00 00 00 00 00 + .by  $00 $00 $00 $00 $00 $00 $00 $00  $00 $00 $00 $00 $00 $00 $00 $00  $00 $00 $00 $00 $00 $00 $00 $00
  4017 5E48 00 00 00 00 00 00 + .by  $00 $00 $00 $00 $00 $00 $00 $00  $00 $00 $00 $00 $00 $00 $00 $00  $00 $00 $00 $00 $00 $00 $00 $00
  4018 5E60 00 00 00 00 00 00 + .by  $00 $00 $00 $00 $00 $00 $00 $00  $00 $00 $00 $00 $00 $00 $00 $00  $00 $00 $00 $00 $00 $00 $00 $00
  4019 5E78 00 00 00 00 00 00 + .by  $00 $00 $00 $00 $00 $00 $00 $00  $00 $00 $00 $00 $00 $00 $00 $00  $00 $00 $00 $00 $00 $00 $00 $00
  4020 5E90 00 00 00 00 00 00 + .by  $00 $00 $00 $00 $00 $00 $00 $00  $00 $00 $00 $00 $00 $00 $00 $00  $00 $00 $00 $00 $00 $00 $00 $00
  4021 5EA8 00 00 00 00 00 00 + .by  $00 $00 $00 $00 $00 $00 $00 $00  $00 $00 $00 $00 $00 $00 $00 $00  $00 $00 $00 $00 $00 $00 $00 $00
  4022 5EC0 00 00 00 00 00 00 + .by  $00 $00 $00 $00 $00 $00 $00 $00  $00 $00 $00 $00 $00 $00 $00 $00  $00 $00 $00 $00 $00 $00 $00 $00
  4023 5ED8 00 00 00 00 00 00 + .by  $00 $00 $00 $00 $00 $00 $00 $00  $00 $00 $00 $00 $00 $00 $00 $00  $00 $00 $00 $00 $00 $00 $00 $00
  4024 5EF0 00 00 00 00 00 00 + .by  $00 $00 $00 $00 $00 $00 $00 $00  $00 $00 $00 $00 $00 $00 $00 $00  $00 $00 $00 $00 $00 $00 $00 $00
  4025 5F08 00 00 00 00 00 00 + .by  $00 $00 $00 $00 $00 $00 $00 $00  $00 $00 $00 $00 $00 $00 $00 $00  $00 $00 $00 $00 $00 $00 $00 $00
  4026 5F20 00 00 00 00 00 00 + .by  $00 $00 $00 $00 $00 $00 $00 $00  $00 $00 $00 $00 $00 $00 $00 $00  $00 $00 $00 $00 $00 $00 $00 $00
  4027 5F38 00 00 00 00 00 00 + .by  $00 $00 $00 $00 $00 $00 $00 $00  $00 $00 $00 $00 $00 $00 $00 $00  $00 $00 $00 $00 $00 $00 $00 $00
  4028 5F50 00 00 00 00 00 00 + .by  $00 $00 $00 $00 $00 $00 $00 $00  $00 $00 $00 $00 $00 $00 $00 $00  $00 $00 $00 $00 $00 $00 $00 $00
  4029 5F68 00 00 00 00 00 00 + .by  $00 $00 $00 $00 $00 $00 $00 $00  $00 $00 $00 $00 $00 $00 $00 $00  $00 $00 $00 $00 $00 $00 $00 $00
  4030 5F80 00 00 00 00 00 00 + .by  $00 $00 $00 $00 $00 $00 $00 $00  $00 $00 $00 $00 $00 $00 $00 $00  $00 $00 $00 $00 $00 $00 $00 $00
  4031 5F98 00 00 00 00 00 00 + .by  $00 $00 $00 $00 $00 $00 $00 $00  $00 $00 $00 $00 $00 $00 $00 $00  $00 $00 $00 $00 $00 $00 $00 $00
  4032 5FB0 00 00 00 00 00 00 + .by  $00 $00 $00 $00 $00 $00 $00 $00  $00 $00 $00 $00 $00 $00 $00 $00  $00 $00 $00 $00 $00 $00 $00 $00
  4033 5FC8 00 00 00 00 00 00 + .by  $00 $00 $00 $00 $00 $00 $00 $00  $00 $00 $00 $00 $00 $00 $00 $00  $00 $00 $00 $00 $00 $00 $00 $00
  4034 5FE0 00 00 00 00 00 00 + .by  $00 $00 $00 $00 $00 $00 $00 $00  $00 $00 $00 $00 $00 $00 $00 $00  $00 $00 $00 $00 $00 $00 $00 $00
  4035 5FF8 00 00 00 00 00 00 + .by  $00 $00 $00 $00 $00 $00 $00 $00  $00 $00 $00 $00 $00 $00 $00 $00  $00 $00 $00 $00 $00 $00 $00 $00
  4036 6010 00 00 00 00 00 00 + .by  $00 $00 $00 $00 $00 $00 $00 $00  $00 $00 $00 $00 $00 $00 $00 $00  $00 $00 $00 $00 $00 $00 $00 $00
  4037 6028 00 00 00 00 00 00 + .by  $00 $00 $00 $00 $00 $00 $00 $00  $00 $00 $00 $00 $00 $00 $00 $00  $00 $00 $00 $00 $00 $00 $00 $00
  4038 6040 00 00 00 00 00 00 + .by  $00 $00 $00 $00 $00 $00 $00 $00  $00 $00 $00 $00 $00 $00 $00 $00  $00 $00 $00 $00 $00 $00 $00 $00
  4039 6058 00 00 00 00 00 00 + .by  $00 $00 $00 $00 $00 $00 $00 $00  $00 $00 $00 $00 $00 $00 $00 $00  $00 $00 $00 $00 $00 $00 $00 $00
  4040 6070 00 00 00 00 00 00 + .by  $00 $00 $00 $00 $00 $00 $00 $00  $00 $00 $00 $00 $00 $00 $00 $00  $00 $00 $00 $00 $00 $00 $00 $00
  4041 6088 00 00 00 00 00 00 + .by  $00 $00 $00 $00 $00 $00 $00 $00  $00 $00 $00 $00 $00 $00 $00 $00  $00 $00 $00 $00 $00 $00 $00 $00
  4042 60A0 00 00 00 00 00 00 + .by  $00 $00 $00 $00 $00 $00 $00 $00  $00 $00 $00 $00 $00 $00 $00 $00  $00 $00 $00 $00 $00 $00 $00 $00
  4043 60B8 00 00 00 00 00 00 + .by  $00 $00 $00 $00 $00 $00 $00 $00  $00 $00 $00 $00 $00 $00 $00 $00  $00 $00 $00 $00 $00 $00 $00 $00
  4044 60D0 00 00 00 00 00 00 + .by  $00 $00 $00 $00 $00 $00 $00 $00  $00 $00 $00 $00 $00 $00 $00 $00  $00 $00 $00 $00 $00 $00 $00 $00
  4045 60E8 00 00 00 00 00 00 + .by  $00 $00 $00 $00 $00 $00 $00 $00  $00 $00 $00 $00 $00 $00 $00 $00  $00 $00 $00 $00 $00 $00 $00 $00
  4046 6100 00 00 00 00 00 00 + .by  $00 $00 $00 $00 $00 $00 $00 $00  $00 $00 $00 $00 $00 $00 $00 $00  $00 $00 $00 $00 $00 $00 $00 $00
  4047 6118 00 00 00 00 00 00 + .by  $00 $00 $00 $00 $00 $00 $00 $00  $00 $00 $00 $00 $00 $00 $00 $00  $00 $00 $00 $00 $00 $00 $00 $00
  4048 6130 00 00 00 00 00 00 + .by  $00 $00 $00 $00 $00 $00 $00 $00  $00 $00 $00 $00 $00 $00 $00 $00  $00 $00 $00 $00 $00 $00 $00 $00
  4049 6148 00 00 00 00 00 00 + .by  $00 $00 $00 $00 $00 $00 $00 $00  $00 $00 $00 $00 $00 $00 $00 $00  $00 $00 $00 $00 $00 $00 $00 $00
  4050 6160 00 00 00 00 00 00 + .by  $00 $00 $00 $00 $00 $00 $00 $00  $00 $00 $00 $00 $00 $00 $00 $00  $00 $00 $00 $00 $00 $00 $00 $00
  4051 6178 00 00 00 00 00 00 + .by  $00 $00 $00 $00 $00 $00 $00 $00  $00 $00 $00 $00 $00 $00 $00 $00  $00 $00 $00 $00 $00 $00 $00 $00
  4052 6190 00 00 00 00 00 00 + .by  $00 $00 $00 $00 $00 $00 $00 $00  $00 $00 $00 $00 $00 $00 $00 $00  $00 $00 $00 $00 $00 $00 $00 $00
  4053 61A8 00 00 00 00 00 00 + .by  $00 $00 $00 $00 $00 $00 $00 $00  $00 $00 $00 $00 $00 $00 $00 $00  $00 $00 $00 $00 $00 $00 $00 $00
  4054 61C0 00 00 00 00 00 00 + .by  $00 $00 $00 $00 $00 $00 $00 $00  $00 $00 $00 $00 $00 $00 $00 $00  $00 $00 $00 $00 $00 $00 $00 $00
  4055 61D8 00 00 00 00 00 00 + .by  $00 $00 $00 $00 $00 $00 $00 $00  $00 $00 $00 $00 $00 $00 $00 $00  $00 $00 $00 $00 $00 $00 $00 $00
  4056 61F0 00 00 00 00 00 00 + .by  $00 $00 $00 $00 $00 $00 $00 $00  $00 $00 $00 $00 $00 $00 $00 $00  $00 $00 $00 $00 $00 $00 $00 $00
  4057 6208 00 00 00 00 00 00 + .by  $00 $00 $00 $00 $00 $00 $00 $00  $00 $00 $00 $00 $00 $00 $00 $00  $00 $00 $00 $00 $00 $00 $00 $00
  4058 6220 00 00 00 00 00 00 + .by  $00 $00 $00 $00 $00 $00 $00 $00  $00 $00 $00 $00 $00 $00 $00 $00  $00 $00 $00 $00 $00 $00 $00 $00
  4059 6238 00 00 00 00 00 00 + .by  $00 $00 $00 $00 $00 $00 $00 $00  $00 $00 $00 $00 $00 $00 $00 $00  $00 $00 $00 $00 $00 $00 $00 $00
  4060 6250 00 00 00 00 00 00 + .by  $00 $00 $00 $00 $00 $00 $00 $07  $08 $09 $0A $0B $0C $0D $0E $0F  $01 $02 $03 $04 $05 $06
  4061
  4062 = 251E			VARINITSIZE	= *-DATAORIGIN
  4063 = 2595			VARDATASIZE	= 9621
  4064
  4065 = 62DD			PROGRAMSTACK	= DATAORIGIN+VARDATASIZE
  4066
  4067 					.print 'DATA: ',DATAORIGIN,'..',PROGRAMSTACK
  4067 				DATA: $3D48..$62DD
  4068
  4069 02E0-02E1> 0F 2A			run START
  4070
  4071 				; ------------------------------------------------------------
  4072
  4073 				.macro	STATICDATA
  4074 				.by  $00 $00 $04 $54 $52 $55 $45 $00  $05 $46 $41 $4C $53 $45 $00 $24  $45 $6E $74 $65 $72 $20 $66 $69
  4075 				.by  $6C $65 $6E $61 $6D $65 $20 $28  $65 $67 $2E $20 $44 $3A $46 $49  $4C $45 $4E $41 $4D $45 $2E $44
  4076 				.by  $49 $46 $29 $2E $00 $23 $45 $6E  $74 $65 $72 $20 $2A $20 $66 $6F  $72 $20 $6C $69 $73 $74 $20 $6F
  4077 				.by  $66 $20 $73 $75 $70 $70 $6F $72  $74 $65 $64 $20 $66 $69 $6C $65  $73 $00 $15 $69 $6E $20 $63 $75
  4078 				.by  $72 $72 $65 $6E $74 $20 $64 $69  $72 $65 $63 $74 $6F $72 $79 $2E  $00 $1A $50 $72 $65 $73 $73 $20
  4079 				.by  $C2 $D2 $C5 $C1 $CB $20 $74 $6F  $20 $65 $78 $69 $74 $20 $74 $6F  $20 $44 $4F $53 $00 $18 $42 $72
  4080 				.by  $65 $61 $6B $20 $70 $72 $65 $73  $73 $65 $64 $2E $20 $41 $62 $6F  $72 $74 $69 $6E $67 $2E $00 $12
  4081 				.by  $52 $65 $61 $64 $69 $6E $67 $20  $64 $69 $72 $65 $63 $74 $6F $72  $79 $2E $00 $07 $44 $3A $2A $2E
  4082 				.by  $44 $49 $46 $00 $02 $44 $3A $00  $22 $54 $6F $6F $20 $6D $61 $6E  $79 $20 $6F $70 $65 $6E $20 $64
  4083 				.by  $69 $73 $6B $20 $66 $69 $6C $65  $73 $2E $20 $41 $62 $6F $72 $74  $69 $6E $67 $00 $0F $46 $69 $6C
  4084 				.by  $65 $20 $6E $6F $74 $20 $66 $6F  $75 $6E $64 $2E $00 $05 $54 $41  $42 $4C $45 $00 $20 $54 $68 $69
  4085 				.by  $73 $20 $69 $73 $20 $6E $6F $74  $20 $61 $20 $44 $49 $46 $20 $66  $69 $6C $65 $2E $20 $41 $62 $6F
  4086 				.by  $72 $74 $69 $6E $67 $00 $0D $50  $61 $72 $73 $69 $6E $67 $20 $66  $69 $6C $65 $2E $00 $1D $4C $6F
  4087 				.by  $6F $6B $69 $6E $67 $20 $66 $6F  $72 $20 $74 $61 $62 $6C $65 $20  $64 $65 $66 $69 $6E $69 $74 $69
  4088 				.by  $6F $6E $2E $00 $07 $56 $45 $43  $54 $4F $52 $53 $00 $1F $43 $6F  $6C $75 $6D $6E $73 $20 $69 $6E
  4089 				.by  $66 $6F $20 $6D $69 $73 $73 $69  $6E $67 $2E $20 $41 $62 $6F $72  $74 $69 $6E $67 $2E $00 $10 $4E
  4090 				.by  $75 $6D $62 $65 $72 $20 $6F $66  $20 $72 $6F $77 $73 $3A $20 $00  $21 $4D $61 $78 $20 $6E $75 $6D
  4091 				.by  $62 $65 $72 $20 $6F $66 $20 $72  $6F $77 $73 $3A $20 $34 $30 $2E  $20 $41 $62 $6F $72 $74 $69 $6E
  4092 				.by  $67 $2E $00 $06 $54 $55 $50 $4C  $45 $53 $00 $1C $52 $6F $77 $73  $20 $69 $6E $66 $6F $20 $6D $69
  4093 				.by  $73 $73 $69 $6E $67 $2E $20 $41  $62 $6F $72 $74 $69 $6E $67 $2E  $00 $13 $4E $75 $6D $62 $65 $72
  4094 				.by  $20 $6F $66 $20 $63 $6F $6C $75  $6D $6E $73 $3A $20 $00 $04 $44  $41 $54 $41 $00 $1C $44 $61 $74
  4095 				.by  $61 $20 $69 $6E $66 $6F $20 $6D  $69 $73 $73 $69 $6E $67 $2E $20  $41 $62 $6F $72 $74 $69 $6E $67
  4096 				.by  $2E $00 $1C $44 $61 $74 $61 $20  $66 $6F $75 $6E $64 $2E $20 $50  $61 $72 $73 $69 $6E $67 $20 $72
  4097 				.by  $65 $63 $6F $72 $64 $73 $2E $00  $08 $1C $52 $65 $63 $6F $72 $64  $20 $00 $04 $20 $6F $66 $20 $00
  4098 				.by  $17 $44 $61 $74 $61 $20 $70 $61  $72 $73 $65 $64 $20 $61 $6E $64  $20 $6C $6F $61 $64 $65 $64 $2E
  4099 				.by  $00 $21 $4E $75 $6D $62 $65 $72  $20 $6F $66 $20 $73 $74 $72 $69  $6E $67 $20 $66 $69 $65 $6C $64
  4100 				.by  $73 $20 $73 $6B $69 $70 $70 $65  $64 $3A $20 $00 $20 $4C $6F $6F  $6B $69 $6E $67 $20 $66 $6F $72
  4101 				.by  $20 $6D $69 $6E $69 $6D $75 $6D  $20 $61 $6E $64 $20 $6D $61 $78  $69 $6D $75 $6D $2E $00 $05 $4D
  4102 				.by  $61 $78 $3A $20 $00 $06 $20 $4D  $69 $6E $3A $20 $00 $18 $44 $61  $74 $61 $20 $6E $65 $65 $64 $20
  4103 				.by  $6E $6F $72 $6D $61 $6C $69 $73  $61 $74 $69 $6F $6E $2E $00 $21  $41 $74 $74 $65 $6D $70 $74 $69
  4104 				.by  $6E $67 $20 $74 $6F $20 $6E $6F  $72 $6D $61 $6C $69 $73 $65 $20  $74 $68 $65 $20 $64 $61 $74 $61
  4105 				.by  $2E $00 $0C $50 $6C $65 $61 $73  $65 $20 $77 $61 $69 $74 $2E $00  $17 $4E $6F $72 $6D $61 $6C $69
  4106 				.by  $73 $61 $74 $69 $6F $6E $20 $63  $6F $6D $70 $6C $65 $74 $65 $2E  $00 $24 $50 $72 $65 $73 $73 $20
  4107 				.by  $61 $6E $79 $20 $6B $65 $79 $20  $74 $6F $20 $64 $69 $73 $70 $6C  $61 $79 $20 $61 $73 $20 $68 $65
  4108 				.by  $61 $74 $6D $61 $70 $2E $00 $21  $48 $65 $61 $74 $6D $61 $70 $20  $30 $2E $35 $20 $62 $79 $20 $64
  4109 				.by  $65 $6C $79 $2F $42 $6C $6F $77  $6A $6F $62 $62 $20 $32 $30 $32  $31 $00 $17 $68 $74 $74 $70 $3A
  4110 				.by  $2F $2F $77 $77 $77 $2E $61 $74  $61 $72 $69 $2E $6F $72 $67 $2E  $70 $6C $00 $03 $02 $02 $01 $01
  4111 				.by  $02 $02 $03 $03 $03 $03 $03 $03  $03 $02 $03 $28 $14 $14 $28 $50  $50 $A0 $A0 $40 $50 $50 $50 $28
  4112 				.by  $28 $A0 $A0 $18 $18 $0C $18 $30  $30 $60 $60 $C0 $C0 $C0 $C0 $18  $0C $C0 $C0
  4113 				.endm
  4114
  4115 					end
